(dp0
V../data/raw_data/437_3.raw
p1
(lp2
(Vtest
p3
I19
tp4
a(Vtrain
p5
I49
tp6
asV../data/raw_data/660_4.raw
p7
(lp8
(Vdev
p9
I69
tp10
asV../data/raw_data/647_3.raw
p11
(lp12
(g3
I17
tp13
asV../data/raw_data/604_1.raw
p14
(lp15
(g5
I268
tp16
asV../data/raw_data/468_1.raw
p17
(lp18
(g5
I387
tp19
asV../data/raw_data/450_0.raw
p20
(lp21
(g5
I176
tp22
asV../data/raw_data/327_0.raw
p23
(lp24
(g5
I196
tp25
asV../data/raw_data/127_0.raw
p26
(lp27
(g3
I72
tp28
asV../data/raw_data/427_0.raw
p29
(lp30
(g3
I109
tp31
asV../data/raw_data/458_1.raw
p32
(lp33
(g9
I56
tp34
asV../data/raw_data/474_0.raw
p35
(lp36
(g5
I411
tp37
asV../data/raw_data/419_1.raw
p38
(lp39
(g5
I246
tp40
asV../data/raw_data/539_1.raw
p41
(lp42
(g5
I340
tp43
asV../data/raw_data/155_0.raw
p44
(lp45
(g5
I383
tp46
asV../data/raw_data/613_1.raw
p47
(lp48
(g5
I93
tp49
asV../data/raw_data/29_0.raw
p50
(lp51
(g5
I129
tp52
asV../data/raw_data/490_0.raw
p53
(lp54
(g5
I120
tp55
asV../data/raw_data/310_2.raw
p56
(lp57
(g5
I252
tp58
asV../data/raw_data/563_0.raw
p59
(lp60
(g5
I369
tp61
asV../data/raw_data/462_2.raw
p62
(lp63
(g5
I306
tp64
asV../data/raw_data/319_0.raw
p65
(lp66
(g3
I81
tp67
asV../data/raw_data/680_0.raw
p68
(lp69
(g5
I103
tp70
asV../data/raw_data/705_0.raw
p71
(lp72
(g3
I42
tp73
asV../data/raw_data/656_1.raw
p74
(lp75
(g5
I180
tp76
asV../data/raw_data/69_3.raw
p77
(lp78
(g3
I91
tp79
asV../data/raw_data/49_0.raw
p80
(lp81
(g3
I116
tp82
asV../data/raw_data/428_1.raw
p83
(lp84
(g9
I114
tp85
asV../data/raw_data/634_0.raw
p86
(lp87
(g5
I294
tp88
asV../data/raw_data/400_1.raw
p89
(lp90
(g5
I143
tp91
asV../data/raw_data/485_1.raw
p92
(lp93
(g5
I395
tp94
asV../data/raw_data/520_5.raw
p95
(lp96
(g5
I22
tp97
asV../data/raw_data/682_0.raw
p98
(lp99
(g5
I106
tp100
asV../data/raw_data/396_2.raw
p101
(lp102
(g5
I155
tp103
asV../data/raw_data/441_3.raw
p104
(lp105
(g5
I31
tp106
asV../data/raw_data/259_3.raw
p107
(lp108
(g9
I86
tp109
asV../data/raw_data/95_11.raw
p110
(lp111
(g5
I71
tp112
asV../data/raw_data/411_10.raw
p113
(lp114
(g9
I78
tp115
asV../data/raw_data/50_1.raw
p116
(lp117
(g9
I105
tp118
asV../data/raw_data/92_2.raw
p119
(lp120
(g3
I23
tp121
asV../data/raw_data/537_0.raw
p122
(lp123
(g5
I333
tp124
asV../data/raw_data/85_1.raw
p125
(lp126
(g9
I52
tp127
asV../data/raw_data/617_2.raw
p128
(lp129
(g5
I99
tp130
asV../data/raw_data/133_0.raw
p131
(lp132
(g3
I35
tp133
asV../data/raw_data/482_3.raw
p134
(lp135
(g5
I399
tp136
asV../data/raw_data/93_13.raw
p137
(lp138
(g5
I62
tp139
asV../data/raw_data/410_10.raw
p140
(lp141
(g3
I77
tp142
asV../data/raw_data/395_1.raw
p143
(lp144
(g9
I50
tp145
asV../data/raw_data/57_0.raw
p146
(lp147
(g3
I105
tp148
asV../data/raw_data/401_0.raw
p149
(lp150
(g3
I39
tp151
asV../data/raw_data/631_0.raw
p152
(lp153
(g5
I293
tp154
asV../data/raw_data/395_2.raw
p155
(lp156
(g3
I44
tp157
asV../data/raw_data/658_0.raw
p158
(lp159
(g5
I183
tp160
asV../data/raw_data/467_0.raw
p161
(lp162
(g9
I91
tp163
asV../data/raw_data/411_9.raw
p164
(lp165
(g5
I244
tp166
asV../data/raw_data/339_1.raw
p167
(lp168
(g9
I22
tp169
asV../data/raw_data/670_0.raw
p170
(lp171
(g9
I102
tp172
asV../data/raw_data/445_0.raw
p173
(lp174
(g3
I11
tp175
asV../data/raw_data/709_0.raw
p176
(lp177
(g5
I150
tp178
asV../data/raw_data/403_3.raw
p179
(lp180
(g5
I140
tp181
asV../data/raw_data/45_2.raw
p182
(lp183
(g9
I137
tp184
asV../data/raw_data/650_0.raw
p185
(lp186
(g5
I184
tp187
asV../data/raw_data/286_0.raw
p188
(lp189
(g5
I323
tp190
asV../data/raw_data/112_0.raw
p191
(lp192
(g9
I134
tp193
asV../data/raw_data/447_0.raw
p194
(lp195
(g5
I32
tp196
asV../data/raw_data/507_3.raw
p197
(lp198
(g5
I373
tp199
asV../data/raw_data/14_2.raw
p200
(lp201
(g5
I189
tp202
asV../data/raw_data/385_7.raw
p203
(lp204
(g3
I88
tp205
asV../data/raw_data/426_3.raw
p206
(lp207
(g9
I121
tp208
asV../data/raw_data/255_1.raw
p209
(lp210
(g3
I92
tp211
asV../data/raw_data/411_6.raw
p212
(lp213
(g3
I79
tp214
asV../data/raw_data/280_3.raw
p215
(lp216
(g5
I320
tp217
asV../data/raw_data/531_2.raw
p218
(lp219
(g5
I338
tp220
asV../data/raw_data/280_5.raw
p221
(lp222
(g5
I321
tp223
asV../data/raw_data/274_0.raw
p224
(lp225
(g9
I7
tp226
asV../data/raw_data/462_1.raw
p227
(lp228
(g5
I305
tp229
asV../data/raw_data/528_1.raw
p230
(lp231
(g5
I27
tp232
asV../data/raw_data/414_10.raw
p233
(lp234
(g9
I74
tp235
asV../data/raw_data/675_2.raw
p236
(lp237
(g5
I328
tp238
asV../data/raw_data/481_2.raw
p239
(lp240
(g5
I402
tp241
asV../data/raw_data/482_4.raw
p242
(lp243
(g9
I141
tp244
asV../data/raw_data/720_0.raw
p245
(lp246
(g5
I377
tp247
asV../data/raw_data/465_3.raw
p248
(lp249
(g5
I300
tp250
asV../data/raw_data/446_0.raw
p251
(lp252
(g5
I34
tp253
asV../data/raw_data/456_0.raw
p254
(lp255
(g3
I57
tp256
asV../data/raw_data/95_0.raw
p257
(lp258
(g5
I64
tp259
asV../data/raw_data/295_0.raw
p260
(lp261
(g5
I0
tp262
asV../data/raw_data/520_3.raw
p263
(lp264
(g5
I21
tp265
asV../data/raw_data/426_0.raw
p266
(lp267
(g5
I362
tp268
asV../data/raw_data/85_3.raw
p269
(lp270
(g5
I164
tp271
asV../data/raw_data/312_1.raw
p272
(lp273
(g5
I250
tp274
asV../data/raw_data/303_1.raw
p275
(lp276
(g9
I123
tp277
asV../data/raw_data/604_0.raw
p278
(lp279
(g3
I90
tp280
asV../data/raw_data/678_2.raw
p281
(lp282
(g3
I101
tp283
asV../data/raw_data/550_1.raw
p284
(lp285
(g9
I28
tp286
asV../data/raw_data/685_4.raw
p287
(lp288
(g5
I102
tp289
asV../data/raw_data/47_3.raw
p290
(lp291
(g5
I390
tp292
asV../data/raw_data/302_0.raw
p293
(lp294
(g5
I363
tp295
asV../data/raw_data/277_0.raw
p296
(lp297
(g5
I12
tp298
asV../data/raw_data/636_2.raw
p299
(lp300
(g5
I298
tp301
asV../data/raw_data/546_3.raw
p302
(lp303
(g5
I217
tp304
asV../data/raw_data/617_1.raw
p305
(lp306
(g5
I98
tp307
asV../data/raw_data/500_1.raw
p308
(lp309
(g5
I290
tp310
asV../data/raw_data/392_1.raw
p311
(lp312
(g5
I152
tp313
asV../data/raw_data/448_2.raw
p314
(lp315
(g5
I30
tp316
asV../data/raw_data/234_1.raw
p317
(lp318
(g5
I81
tp319
asV../data/raw_data/134_0.raw
p320
(lp321
(g5
I115
tp322
asV../data/raw_data/471_1.raw
p323
(lp324
(g5
I409
tp325
asV../data/raw_data/278_3.raw
p326
(lp327
(g5
I14
tp328
asV../data/raw_data/72_2.raw
p329
(lp330
(g3
I65
tp331
asV../data/raw_data/604_2.raw
p332
(lp333
(g5
I269
tp334
asV../data/raw_data/376_1.raw
p335
(lp336
(g5
I148
tp337
asV../data/raw_data/611_0.raw
p338
(lp339
(g9
I33
tp340
asV../data/raw_data/69_6.raw
p341
(lp342
(g5
I277
tp343
asV../data/raw_data/421_0.raw
p344
(lp345
(g3
I108
tp346
asV../data/raw_data/352_0.raw
p347
(lp348
(g5
I315
tp349
asV../data/raw_data/385_8.raw
p350
(lp351
(g5
I267
tp352
asV../data/raw_data/613_2.raw
p353
(lp354
(g5
I94
tp355
asV../data/raw_data/93_10.raw
p356
(lp357
(g5
I60
tp358
asV../data/raw_data/385_1.raw
p359
(lp360
(g3
I87
tp361
asV../data/raw_data/605_3.raw
p362
(lp363
(g9
I85
tp364
asV../data/raw_data/82_0.raw
p365
(lp366
(g5
I157
tp367
asV../data/raw_data/233_0.raw
p368
(lp369
(g5
I85
tp370
asV../data/raw_data/507_2.raw
p371
(lp372
(g5
I372
tp373
asV../data/raw_data/526_3.raw
p374
(lp375
(g5
I18
tp376
asV../data/raw_data/643_0.raw
p377
(lp378
(g5
I45
tp379
asV../data/raw_data/425_4.raw
p380
(lp381
(g5
I356
tp382
asV../data/raw_data/293_0.raw
p383
(lp384
(g9
I0
tp385
asV../data/raw_data/408_0.raw
p386
(lp387
(g9
I45
tp388
asV../data/raw_data/481_4.raw
p389
(lp390
(g3
I120
tp391
asV../data/raw_data/482_2.raw
p392
(lp393
(g5
I398
tp394
asV../data/raw_data/634_1.raw
p395
(lp396
(g3
I95
tp397
asV../data/raw_data/400_0.raw
p398
(lp399
(g5
I142
tp400
asV../data/raw_data/92_4.raw
p401
(lp402
(g3
I24
tp403
asV../data/raw_data/146_1.raw
p404
(lp405
(g5
I86
tp406
asV../data/raw_data/691_1.raw
p407
(lp408
(g9
I70
tp409
asV../data/raw_data/513_5.raw
p410
(lp411
(g3
I51
tp412
asV../data/raw_data/111_0.raw
p413
(lp414
(g5
I345
tp415
asV../data/raw_data/747_0.raw
p416
(lp417
(g9
I27
tp418
asV../data/raw_data/504_1.raw
p419
(lp420
(g3
I93
tp421
asV../data/raw_data/504_2.raw
p422
(lp423
(g5
I282
tp424
asV../data/raw_data/128_0.raw
p425
(lp426
(g5
I228
tp427
asV../data/raw_data/616_2.raw
p428
(lp429
(g3
I32
tp430
asV../data/raw_data/350_0.raw
p431
(lp432
(g9
I95
tp433
asV../data/raw_data/735_0.raw
p434
(lp435
(g5
I279
tp436
asV../data/raw_data/684_0.raw
p437
(lp438
(g3
I34
tp439
asV../data/raw_data/522_0.raw
p440
(lp441
(g5
I23
tp442
asV../data/raw_data/418_1.raw
p443
(lp444
(g9
I80
tp445
asV../data/raw_data/403_0.raw
p446
(lp447
(g5
I138
tp448
asV../data/raw_data/16_0.raw
p449
(lp450
(g5
I190
tp451
asV../data/raw_data/458_2.raw
p452
(lp453
(g5
I172
tp454
asV../data/raw_data/95_3.raw
p455
(lp456
(g3
I25
tp457
asV../data/raw_data/417_0.raw
p458
(lp459
(g9
I75
tp460
asV../data/raw_data/543_2.raw
p461
(lp462
(g5
I214
tp463
asV../data/raw_data/651_0.raw
p464
(lp465
(g5
I181
tp466
asV../data/raw_data/520_0.raw
p467
(lp468
(g5
I19
tp469
asV../data/raw_data/479_3.raw
p470
(lp471
(g5
I415
tp472
asV../data/raw_data/411_3.raw
p473
(lp474
(g3
I78
tp475
asV../data/raw_data/279_0.raw
p476
(lp477
(g5
I15
tp478
asV../data/raw_data/437_2.raw
p479
(lp480
(g9
I21
tp481
asV../data/raw_data/407_0.raw
p482
(lp483
(g5
I133
tp484
asV../data/raw_data/611_2.raw
p485
(lp486
(g5
I96
tp487
asV../data/raw_data/501_1.raw
p488
(lp489
(g5
I292
tp490
asV../data/raw_data/93_8.raw
p491
(lp492
(g9
I24
tp493
asV../data/raw_data/475_1.raw
p494
(lp495
(g9
I144
tp496
asV../data/raw_data/491_0.raw
p497
(lp498
(g5
I122
tp499
asV../data/raw_data/539_2.raw
p500
(lp501
(g5
I341
tp502
asV../data/raw_data/431_0.raw
p503
(lp504
(g5
I51
tp505
asV../data/raw_data/521_0.raw
p506
(lp507
(g3
I8
tp508
asV../data/raw_data/255_0.raw
p509
(lp510
(g5
I278
tp511
asV../data/raw_data/157_3.raw
p512
(lp513
(g5
I386
tp514
asV../data/raw_data/403_4.raw
p515
(lp516
(g9
I44
tp517
asV../data/raw_data/274_1.raw
p518
(lp519
(g9
I8
tp520
asV../data/raw_data/496_0.raw
p521
(lp522
(g9
I37
tp523
asV../data/raw_data/83_0.raw
p524
(lp525
(g5
I158
tp526
asV../data/raw_data/253_1.raw
p527
(lp528
(g5
I348
tp529
asV../data/raw_data/160_0.raw
p530
(lp531
(g3
I96
tp532
asV../data/raw_data/105_2.raw
p533
(lp534
(g9
I16
tp535
asV../data/raw_data/302_1.raw
p536
(lp537
(g5
I364
tp538
asV../data/raw_data/605_1.raw
p539
(lp540
(g3
I89
tp541
asV../data/raw_data/452_1.raw
p542
(lp543
(g9
I57
tp544
asV../data/raw_data/525_0.raw
p545
(lp546
(g3
I6
tp547
asV../data/raw_data/721_0.raw
p548
(lp549
(g9
I128
tp550
asV../data/raw_data/494_0.raw
p551
(lp552
(g5
I117
tp553
asV../data/raw_data/415_0.raw
p554
(lp555
(g3
I74
tp556
asV../data/raw_data/135_1.raw
p557
(lp558
(g5
I112
tp559
asV../data/raw_data/508_0.raw
p560
(lp561
(g9
I126
tp562
asV../data/raw_data/135_2.raw
p563
(lp564
(g5
I113
tp565
asV../data/raw_data/356_0.raw
p566
(lp567
(g5
I314
tp568
asV../data/raw_data/95_4.raw
p569
(lp570
(g3
I26
tp571
asV../data/raw_data/93_9.raw
p572
(lp573
(g5
I59
tp574
asV../data/raw_data/660_2.raw
p575
(lp576
(g9
I68
tp577
asV../data/raw_data/693_1.raw
p578
(lp579
(g5
I204
tp580
asV../data/raw_data/621_1.raw
p581
(lp582
(g3
I53
tp583
asV../data/raw_data/312_0.raw
p584
(lp585
(g3
I82
tp586
asV../data/raw_data/526_0.raw
p587
(lp588
(g9
I10
tp589
asV../data/raw_data/657_2.raw
p590
(lp591
(g3
I59
tp592
asV../data/raw_data/310_0.raw
p593
(lp594
(g5
I251
tp595
asV../data/raw_data/503_1.raw
p596
(lp597
(g5
I288
tp598
asV../data/raw_data/673_0.raw
p599
(lp600
(g5
I329
tp601
asV../data/raw_data/558_0.raw
p602
(lp603
(g5
I75
tp604
asV../data/raw_data/471_0.raw
p605
(lp606
(g5
I408
tp607
asV../data/raw_data/501_0.raw
p608
(lp609
(g5
I291
tp610
asV../data/raw_data/479_0.raw
p611
(lp612
(g5
I413
tp613
asV../data/raw_data/151_0.raw
p614
(lp615
(g5
I379
tp616
asV../data/raw_data/539_4.raw
p617
(lp618
(g9
I109
tp619
asV../data/raw_data/45_0.raw
p620
(lp621
(g5
I393
tp622
asV../data/raw_data/110_1.raw
p623
(lp624
(g3
I107
tp625
asV../data/raw_data/490_1.raw
p626
(lp627
(g5
I121
tp628
asV../data/raw_data/516_1.raw
p629
(lp630
(g3
I52
tp631
asV../data/raw_data/319_1.raw
p632
(lp633
(g5
I248
tp634
asV../data/raw_data/552_0.raw
p635
(lp636
(g5
I80
tp637
asV../data/raw_data/93_3.raw
p638
(lp639
(g9
I23
tp640
asV../data/raw_data/485_3.raw
p641
(lp642
(g3
I119
tp643
asV../data/raw_data/548_1.raw
p644
(lp645
(g9
I73
tp646
asV../data/raw_data/376_0.raw
p647
(lp648
(g3
I41
tp649
asV../data/raw_data/381_0.raw
p650
(lp651
(g5
I263
tp652
asV../data/raw_data/16_2.raw
p653
(lp654
(g5
I191
tp655
asV../data/raw_data/546_4.raw
p656
(lp657
(g5
I218
tp658
asV../data/raw_data/464_0.raw
p659
(lp660
(g3
I118
tp661
asV../data/raw_data/634_5.raw
p662
(lp663
(g5
I295
tp664
asV../data/raw_data/483_0.raw
p665
(lp666
(g9
I140
tp667
asV../data/raw_data/423_2.raw
p668
(lp669
(g5
I355
tp670
asV../data/raw_data/364_1.raw
p671
(lp672
(g3
I84
tp673
asV../data/raw_data/124_4.raw
p674
(lp675
(g3
I70
tp676
asV../data/raw_data/740_1.raw
p677
(lp678
(g5
I74
tp679
asV../data/raw_data/29_1.raw
p680
(lp681
(g5
I130
tp682
asV../data/raw_data/456_1.raw
p683
(lp684
(g5
I179
tp685
asV../data/raw_data/154_0.raw
p686
(lp687
(g3
I114
tp688
asV../data/raw_data/607_4.raw
p689
(lp690
(g3
I113
tp691
asV../data/raw_data/473_0.raw
p692
(lp693
(g5
I407
tp694
asV../data/raw_data/457_1.raw
p695
(lp696
(g9
I59
tp697
asV../data/raw_data/314_0.raw
p698
(lp699
(g5
I258
tp700
asV../data/raw_data/30_1.raw
p701
(lp702
(g9
I18
tp703
asV../data/raw_data/605_2.raw
p704
(lp705
(g9
I84
tp706
asV../data/raw_data/649_0.raw
p707
(lp708
(g9
I20
tp709
asV../data/raw_data/157_0.raw
p710
(lp711
(g5
I384
tp712
asV../data/raw_data/67_1.raw
p713
(lp714
(g5
I275
tp715
asV../data/raw_data/477_0.raw
p716
(lp717
(g9
I142
tp718
asV../data/raw_data/512_0.raw
p719
(lp720
(g5
I170
tp721
asV../data/raw_data/19_1.raw
p722
(lp723
(g3
I62
tp724
asV../data/raw_data/674_0.raw
p725
(lp726
(g5
I326
tp727
asV../data/raw_data/95_7.raw
p728
(lp729
(g5
I67
tp730
asV../data/raw_data/445_1.raw
p731
(lp732
(g9
I14
tp733
asV../data/raw_data/699_1.raw
p734
(lp735
(g3
I68
tp736
asV../data/raw_data/554_0.raw
p737
(lp738
(g5
I78
tp739
asV../data/raw_data/631_4.raw
p740
(lp741
(g5
I146
tp742
asV../data/raw_data/418_0.raw
p743
(lp744
(g9
I79
tp745
asV../data/raw_data/414_12.raw
p746
(lp747
(g5
I233
tp748
asV../data/raw_data/675_0.raw
p749
(lp750
(g5
I327
tp751
asV../data/raw_data/121_1.raw
p752
(lp753
(g5
I224
tp754
asV../data/raw_data/287_1.raw
p755
(lp756
(g9
I100
tp757
asV../data/raw_data/555_0.raw
p758
(lp759
(g5
I77
tp760
asV../data/raw_data/305_0.raw
p761
(lp762
(g5
I366
tp763
asV../data/raw_data/116_0.raw
p764
(lp765
(g3
I106
tp766
asV../data/raw_data/430_1.raw
p767
(lp768
(g5
I50
tp769
asV../data/raw_data/509_0.raw
p770
(lp771
(g3
I123
tp772
asV../data/raw_data/626_1.raw
p773
(lp774
(g5
I175
tp775
asV../data/raw_data/126_1.raw
p776
(lp777
(g5
I226
tp778
asV../data/raw_data/688_0.raw
p779
(lp780
(g5
I100
tp781
asV../data/raw_data/531_1.raw
p782
(lp783
(g9
I108
tp784
asV../data/raw_data/28_0.raw
p785
(lp786
(g9
I39
tp787
asV../data/raw_data/551_0.raw
p788
(lp789
(g3
I28
tp790
asV../data/raw_data/39_0.raw
p791
(lp792
(g5
I40
tp793
asV../data/raw_data/547_0.raw
p794
(lp795
(g5
I220
tp796
asV../data/raw_data/363_2.raw
p797
(lp798
(g5
I259
tp799
asV../data/raw_data/748_0.raw
p800
(lp801
(g5
I54
tp802
asV../data/raw_data/683_1.raw
p803
(lp804
(g5
I105
tp805
asV../data/raw_data/447_1.raw
p806
(lp807
(g5
I33
tp808
asV../data/raw_data/317_1.raw
p809
(lp810
(g5
I254
tp811
asV../data/raw_data/414_14.raw
p812
(lp813
(g5
I234
tp814
asV../data/raw_data/237_0.raw
p815
(lp816
(g5
I82
tp817
asV../data/raw_data/50_0.raw
p818
(lp819
(g9
I104
tp820
asV../data/raw_data/752_2.raw
p821
(lp822
(g9
I124
tp823
asV../data/raw_data/410_5.raw
p824
(lp825
(g5
I238
tp826
asV../data/raw_data/280_2.raw
p827
(lp828
(g5
I319
tp829
asV../data/raw_data/657_1.raw
p830
(lp831
(g3
I58
tp832
asV../data/raw_data/18_0.raw
p833
(lp834
(g5
I193
tp835
asV../data/raw_data/420_2.raw
p836
(lp837
(g9
I116
tp838
asV../data/raw_data/96_1.raw
p839
(lp840
(g5
I73
tp841
asV../data/raw_data/483_1.raw
p842
(lp843
(g5
I397
tp844
asV../data/raw_data/339_0.raw
p845
(lp846
(g5
I52
tp847
asV../data/raw_data/750_2.raw
p848
(lp849
(g5
I368
tp850
asV../data/raw_data/385_3.raw
p851
(lp852
(g5
I266
tp853
asV../data/raw_data/616_1.raw
p854
(lp855
(g3
I31
tp856
asV../data/raw_data/242_1.raw
p857
(lp858
(g9
I53
tp859
asV../data/raw_data/472_0.raw
p860
(lp861
(g5
I405
tp862
asV../data/raw_data/392_0.raw
p863
(lp864
(g5
I151
tp865
asV../data/raw_data/643_1.raw
p866
(lp867
(g5
I46
tp868
asV../data/raw_data/119_0.raw
p869
(lp870
(g9
I111
tp871
asV../data/raw_data/265_0.raw
p872
(lp873
(g5
I332
tp874
asV../data/raw_data/481_0.raw
p875
(lp876
(g5
I400
tp877
asV../data/raw_data/244_4.raw
p878
(lp879
(g3
I46
tp880
a(g5
I167
tp881
asV../data/raw_data/47_4.raw
p882
(lp883
(g5
I391
tp884
asV../data/raw_data/380_0.raw
p885
(lp886
(g5
I262
tp887
asV../data/raw_data/623_0.raw
p888
(lp889
(g5
I107
tp890
asV../data/raw_data/613_0.raw
p891
(lp892
(g5
I92
tp893
asV../data/raw_data/444_1.raw
p894
(lp895
(g5
I35
tp896
asV../data/raw_data/110_0.raw
p897
(lp898
(g5
I346
tp899
asV../data/raw_data/91_0.raw
p900
(lp901
(g5
I56
tp902
asV../data/raw_data/476_1.raw
p903
(lp904
(g5
I410
tp905
asV../data/raw_data/708_0.raw
p906
(lp907
(g5
I149
tp908
asV../data/raw_data/260_1.raw
p909
(lp910
(g5
I331
tp911
asV../data/raw_data/140_1.raw
p912
(lp913
(g5
I90
tp914
asV../data/raw_data/403_2.raw
p915
(lp916
(g5
I139
tp917
asV../data/raw_data/617_0.raw
p918
(lp919
(g3
I33
tp920
asV../data/raw_data/407_2.raw
p921
(lp922
(g5
I134
tp923
asV../data/raw_data/598_1.raw
p924
(lp925
(g5
I5
tp926
asV../data/raw_data/192_0.raw
p927
(lp928
(g5
I7
tp929
asV../data/raw_data/127_2.raw
p930
(lp931
(g5
I227
tp932
asV../data/raw_data/95_1.raw
p933
(lp934
(g5
I65
tp935
asV../data/raw_data/458_0.raw
p936
(lp937
(g5
I171
tp938
asV../data/raw_data/29_4.raw
p939
(lp940
(g5
I131
tp941
asV../data/raw_data/736_0.raw
p942
(lp943
(g5
I280
tp944
asV../data/raw_data/410_3.raw
p945
(lp946
(g5
I237
tp947
asV../data/raw_data/48_0.raw
p948
(lp949
(g5
I389
tp950
asV../data/raw_data/424_3.raw
p951
(lp952
(g5
I358
tp953
asV../data/raw_data/685_2.raw
p954
(lp955
(g5
I101
tp956
asV../data/raw_data/424_7.raw
p957
(lp958
(g5
I359
tp959
asV../data/raw_data/406_2.raw
p960
(lp961
(g5
I136
tp962
asV../data/raw_data/592_1.raw
p963
(lp964
(g5
I4
tp965
asV../data/raw_data/638_0.raw
p966
(lp967
(g5
I394
tp968
asV../data/raw_data/502_3.raw
p969
(lp970
(g5
I287
tp971
asV../data/raw_data/697_1.raw
p972
(lp973
(g5
I206
tp974
asV../data/raw_data/522_1.raw
p975
(lp976
(g5
I24
tp977
asV../data/raw_data/411_0.raw
p978
(lp979
(g5
I239
tp980
asV../data/raw_data/697_0.raw
p981
(lp982
(g9
I71
tp983
asV../data/raw_data/403_1.raw
p984
(lp985
(g9
I43
tp986
asV../data/raw_data/750_1.raw
p987
(lp988
(g9
I125
tp989
asV../data/raw_data/95_6.raw
p990
(lp991
(g5
I66
tp992
asV../data/raw_data/447_2.raw
p993
(lp994
(g9
I13
tp995
asV../data/raw_data/275_1.raw
p996
(lp997
(g5
I11
tp998
asV../data/raw_data/92_3.raw
p999
(lp1000
(g9
I25
tp1001
asV../data/raw_data/326_0.raw
p1002
(lp1003
(g3
I64
tp1004
asV../data/raw_data/459_0.raw
p1005
(lp1006
(g5
I108
tp1007
asV../data/raw_data/454_0.raw
p1008
(lp1009
(g3
I55
tp1010
asV../data/raw_data/464_1.raw
p1011
(lp1012
(g9
I138
tp1013
asV../data/raw_data/498_0.raw
p1014
(lp1015
(g5
I110
tp1016
asV../data/raw_data/416_1.raw
p1017
(lp1018
(g5
I235
tp1019
asV../data/raw_data/519_0.raw
p1020
(lp1021
(g9
I54
tp1022
asV../data/raw_data/259_6.raw
p1023
(lp1024
(g5
I273
tp1025
asV../data/raw_data/383_0.raw
p1026
(lp1027
(g5
I264
tp1028
asV../data/raw_data/136_0.raw
p1029
(lp1030
(g9
I35
tp1031
asV../data/raw_data/95_10.raw
p1032
(lp1033
(g5
I70
tp1034
asV../data/raw_data/597_0.raw
p1035
(lp1036
(g3
I2
tp1037
asV../data/raw_data/417_2.raw
p1038
(lp1039
(g9
I76
tp1040
asV../data/raw_data/360_0.raw
p1041
(lp1042
(g5
I260
tp1043
asV../data/raw_data/548_2.raw
p1044
(lp1045
(g5
I223
tp1046
asV../data/raw_data/54_0.raw
p1047
(lp1048
(g3
I104
tp1049
asV../data/raw_data/411_1.raw
p1050
(lp1051
(g5
I240
tp1052
asV../data/raw_data/325_0.raw
p1053
(lp1054
(g5
I197
tp1055
asV../data/raw_data/546_2.raw
p1056
(lp1057
(g5
I216
tp1058
asV../data/raw_data/144_1.raw
p1059
(lp1060
(g9
I32
tp1061
asV../data/raw_data/421_1.raw
p1062
(lp1063
(g5
I352
tp1064
asV../data/raw_data/16_1.raw
p1065
(lp1066
(g3
I61
tp1067
asV../data/raw_data/644_0.raw
p1068
(lp1069
(g9
I19
tp1070
asV../data/raw_data/280_1.raw
p1071
(lp1072
(g9
I97
tp1073
asV../data/raw_data/438_5.raw
p1074
(lp1075
(g5
I310
tp1076
asV../data/raw_data/124_2.raw
p1077
(lp1078
(g5
I225
tp1079
asV../data/raw_data/75_0.raw
p1080
(lp1081
(g5
I198
tp1082
asV../data/raw_data/520_1.raw
p1083
(lp1084
(g5
I20
tp1085
asV../data/raw_data/372_0.raw
p1086
(lp1087
(g9
I46
tp1088
asV../data/raw_data/411_2.raw
p1089
(lp1090
(g5
I241
tp1091
asV../data/raw_data/494_1.raw
p1092
(lp1093
(g5
I118
tp1094
asV../data/raw_data/151_1.raw
p1095
(lp1096
(g9
I130
tp1097
asV../data/raw_data/660_0.raw
p1098
(lp1099
(g3
I67
tp1100
asV../data/raw_data/375_0.raw
p1101
(lp1102
(g5
I147
tp1103
asV../data/raw_data/23_0.raw
p1104
(lp1105
(g5
I128
tp1106
asV../data/raw_data/47_1.raw
p1107
(lp1108
(g3
I117
tp1109
asV../data/raw_data/227_0.raw
p1110
(lp1111
(g5
I374
tp1112
asV../data/raw_data/93_1.raw
p1113
(lp1114
(g5
I58
tp1115
asV../data/raw_data/324_0.raw
p1116
(lp1117
(g9
I66
tp1118
asV../data/raw_data/480_0.raw
p1119
(lp1120
(g3
I122
tp1121
asV../data/raw_data/106_0.raw
p1122
(lp1123
(g3
I14
tp1124
asV../data/raw_data/526_1.raw
p1125
(lp1126
(g5
I16
tp1127
asV../data/raw_data/410_0.raw
p1128
(lp1129
(g3
I75
tp1130
asV../data/raw_data/441_2.raw
p1131
(lp1132
(g3
I9
tp1133
asV../data/raw_data/460_0.raw
p1134
(lp1135
(g5
I302
tp1136
asV../data/raw_data/528_0.raw
p1137
(lp1138
(g5
I26
tp1139
asV../data/raw_data/33_0.raw
p1140
(lp1141
(g3
I16
tp1142
asV../data/raw_data/406_0.raw
p1143
(lp1144
(g9
I42
tp1145
asV../data/raw_data/13_3.raw
p1146
(lp1147
(g3
I60
tp1148
asV../data/raw_data/321_0.raw
p1149
(lp1150
(g5
I195
tp1151
asV../data/raw_data/93_14.raw
p1152
(lp1153
(g3
I22
tp1154
asV../data/raw_data/533_0.raw
p1155
(lp1156
(g5
I336
tp1157
asV../data/raw_data/497_2.raw
p1158
(lp1159
(g3
I36
tp1160
asV../data/raw_data/310_1.raw
p1161
(lp1162
(g9
I81
tp1163
asV../data/raw_data/45_1.raw
p1164
(lp1165
(g9
I136
tp1166
asV../data/raw_data/545_0.raw
p1167
(lp1168
(g5
I222
tp1169
asV../data/raw_data/513_4.raw
p1170
(lp1171
(g3
I50
tp1172
asV../data/raw_data/25_1.raw
p1173
(lp1174
(g9
I38
tp1175
asV../data/raw_data/686_0.raw
p1176
(lp1177
(g9
I34
tp1178
asV../data/raw_data/653_0.raw
p1179
(lp1180
(g9
I62
tp1181
asV../data/raw_data/265_1.raw
p1182
(lp1183
(g9
I103
tp1184
asV../data/raw_data/282_0.raw
p1185
(lp1186
(g5
I322
tp1187
asV../data/raw_data/481_1.raw
p1188
(lp1189
(g5
I401
tp1190
asV../data/raw_data/651_3.raw
p1191
(lp1192
(g5
I182
tp1193
asV../data/raw_data/253_0.raw
p1194
(lp1195
(g5
I347
tp1196
asV../data/raw_data/486_0.raw
p1197
(lp1198
(g9
I139
tp1199
asV../data/raw_data/311_0.raw
p1200
(lp1201
(g3
I83
tp1202
asV../data/raw_data/333_0.raw
p1203
(lp1204
(g5
I53
tp1205
asV../data/raw_data/607_1.raw
p1206
(lp1207
(g9
I132
tp1208
asV../data/raw_data/400_2.raw
p1209
(lp1210
(g5
I144
tp1211
asV../data/raw_data/606_1.raw
p1212
(lp1213
(g5
I382
tp1214
asV../data/raw_data/69_4.raw
p1215
(lp1216
(g5
I276
tp1217
asV../data/raw_data/417_1.raw
p1218
(lp1219
(g5
I236
tp1220
asV../data/raw_data/291_1.raw
p1221
(lp1222
(g3
I1
tp1223
asV../data/raw_data/438_7.raw
p1224
(lp1225
(g5
I312
tp1226
asV../data/raw_data/529_0.raw
p1227
(lp1228
(g5
I29
tp1229
asV../data/raw_data/414_2.raw
p1230
(lp1231
(g5
I230
tp1232
asV../data/raw_data/72_3.raw
p1233
(lp1234
(g3
I66
tp1235
asV../data/raw_data/698_1.raw
p1236
(lp1237
(g5
I209
tp1238
asV../data/raw_data/385_0.raw
p1239
(lp1240
(g5
I265
tp1241
asV../data/raw_data/453_1.raw
p1242
(lp1243
(g5
I177
tp1244
asV../data/raw_data/666_0.raw
p1245
(lp1246
(g5
I200
tp1247
asV../data/raw_data/272_1.raw
p1248
(lp1249
(g9
I5
tp1250
asV../data/raw_data/234_0.raw
p1251
(lp1252
(g9
I29
tp1253
asV../data/raw_data/433_0.raw
p1254
(lp1255
(g5
I313
tp1256
asV../data/raw_data/539_0.raw
p1257
(lp1258
(g5
I339
tp1259
asV../data/raw_data/322_0.raw
p1260
(lp1261
(g3
I63
tp1262
asV../data/raw_data/645_0.raw
p1263
(lp1264
(g5
I47
tp1265
asV../data/raw_data/278_1.raw
p1266
(lp1267
(g5
I13
tp1268
asV../data/raw_data/320_0.raw
p1269
(lp1270
(g5
I194
tp1271
asV../data/raw_data/414_5.raw
p1272
(lp1273
(g5
I232
tp1274
asV../data/raw_data/294_0.raw
p1275
(lp1276
(g3
I0
tp1277
asV../data/raw_data/132_0.raw
p1278
(lp1279
(g5
I109
tp1280
asV../data/raw_data/557_0.raw
p1281
(lp1282
(g5
I79
tp1283
asV../data/raw_data/520_2.raw
p1284
(lp1285
(g9
I11
tp1286
asV../data/raw_data/406_1.raw
p1287
(lp1288
(g5
I135
tp1289
asV../data/raw_data/291_2.raw
p1290
(lp1291
(g9
I2
tp1292
asV../data/raw_data/29_2.raw
p1293
(lp1294
(g3
I38
tp1295
asV../data/raw_data/599_0.raw
p1296
(lp1297
(g5
I25
tp1298
asV../data/raw_data/382_0.raw
p1299
(lp1300
(g3
I86
tp1301
asV../data/raw_data/695_0.raw
p1302
(lp1303
(g5
I207
tp1304
asV../data/raw_data/727_1.raw
p1305
(lp1306
(g5
I375
tp1307
asV../data/raw_data/429_1.raw
p1308
(lp1309
(g5
I351
tp1310
asV../data/raw_data/513_1.raw
p1311
(lp1312
(g3
I48
tp1313
asV../data/raw_data/280_4.raw
p1314
(lp1315
(g9
I98
tp1316
asV../data/raw_data/750_0.raw
p1317
(lp1318
(g5
I367
tp1319
asV../data/raw_data/95_5.raw
p1320
(lp1321
(g3
I27
tp1322
asV../data/raw_data/275_0.raw
p1323
(lp1324
(g5
I10
tp1325
asV../data/raw_data/698_4.raw
p1326
(lp1327
(g5
I211
tp1328
asV../data/raw_data/504_3.raw
p1329
(lp1330
(g5
I283
tp1331
asV../data/raw_data/720_1.raw
p1332
(lp1333
(g5
I378
tp1334
asV../data/raw_data/428_2.raw
p1335
(lp1336
(g9
I115
tp1337
asV../data/raw_data/315_0.raw
p1338
(lp1339
(g5
I256
tp1340
asV../data/raw_data/628_1.raw
p1341
(lp1342
(g3
I94
tp1343
asV../data/raw_data/558_1.raw
p1344
(lp1345
(g5
I76
tp1346
asV../data/raw_data/83_2.raw
p1347
(lp1348
(g5
I160
tp1349
asV../data/raw_data/507_0.raw
p1350
(lp1351
(g5
I371
tp1352
asV../data/raw_data/281_2.raw
p1353
(lp1354
(g5
I318
tp1355
asV../data/raw_data/467_3.raw
p1356
(lp1357
(g5
I301
tp1358
asV../data/raw_data/479_1.raw
p1359
(lp1360
(g9
I145
tp1361
asV../data/raw_data/313_0.raw
p1362
(lp1363
(g5
I249
tp1364
asV../data/raw_data/158_0.raw
p1365
(lp1366
(g9
I133
tp1367
asV../data/raw_data/438_8.raw
p1368
(lp1369
(g9
I94
tp1370
asV../data/raw_data/25_2.raw
p1371
(lp1372
(g5
I124
tp1373
asV../data/raw_data/534_1.raw
p1374
(lp1375
(g5
I335
tp1376
asV../data/raw_data/427_1.raw
p1377
(lp1378
(g5
I360
tp1379
asV../data/raw_data/438_6.raw
p1380
(lp1381
(g5
I311
tp1382
asV../data/raw_data/419_0.raw
p1383
(lp1384
(g5
I245
tp1385
asV../data/raw_data/93_19.raw
p1386
(lp1387
(g5
I63
tp1388
asV../data/raw_data/704_0.raw
p1389
(lp1390
(g9
I47
tp1391
asV../data/raw_data/308_0.raw
p1392
(lp1393
(g9
I122
tp1394
asV../data/raw_data/663_0.raw
p1395
(lp1396
(g9
I67
tp1397
asV../data/raw_data/677_0.raw
p1398
(lp1399
(g9
I101
tp1400
asV../data/raw_data/672_1.raw
p1401
(lp1402
(g3
I103
tp1403
asV../data/raw_data/698_2.raw
p1404
(lp1405
(g5
I210
tp1406
asV../data/raw_data/455_0.raw
p1407
(lp1408
(g5
I178
tp1409
asV../data/raw_data/526_2.raw
p1410
(lp1411
(g5
I17
tp1412
asV../data/raw_data/657_0.raw
p1413
(lp1414
(g9
I61
tp1415
asV../data/raw_data/18_1.raw
p1416
(lp1417
(g9
I65
tp1418
asV../data/raw_data/478_0.raw
p1419
(lp1420
(g5
I412
tp1421
asV../data/raw_data/151_2.raw
p1422
(lp1423
(g5
I380
tp1424
asV../data/raw_data/543_1.raw
p1425
(lp1426
(g5
I213
tp1427
asV../data/raw_data/427_3.raw
p1428
(lp1429
(g5
I361
tp1430
asV../data/raw_data/632_0.raw
p1431
(lp1432
(g9
I89
tp1433
asV../data/raw_data/232_0.raw
p1434
(lp1435
(g5
I83
tp1436
asV../data/raw_data/146_0.raw
p1437
(lp1438
(g9
I31
tp1439
asV../data/raw_data/242_0.raw
p1440
(lp1441
(g5
I168
tp1442
asV../data/raw_data/598_3.raw
p1443
(lp1444
(g5
I6
tp1445
asV../data/raw_data/445_2.raw
p1446
(lp1447
(g9
I15
tp1448
asV../data/raw_data/28_1.raw
p1449
(lp1450
(g9
I40
tp1451
asV../data/raw_data/315_1.raw
p1452
(lp1453
(g5
I257
tp1454
asV../data/raw_data/21_0.raw
p1455
(lp1456
(g3
I37
tp1457
asV../data/raw_data/30_0.raw
p1458
(lp1459
(g5
I42
tp1460
asV../data/raw_data/317_2.raw
p1461
(lp1462
(g5
I255
tp1463
asV../data/raw_data/424_1.raw
p1464
(lp1465
(g5
I357
tp1466
asV../data/raw_data/414_3.raw
p1467
(lp1468
(g5
I231
tp1469
asV../data/raw_data/679_0.raw
p1470
(lp1471
(g5
I325
tp1472
asV../data/raw_data/197_0.raw
p1473
(lp1474
(g3
I4
tp1475
a(g9
I3
tp1476
asV../data/raw_data/93_11.raw
p1477
(lp1478
(g5
I61
tp1479
asV../data/raw_data/278_0.raw
p1480
(lp1481
(g3
I5
tp1482
asV../data/raw_data/259_0.raw
p1483
(lp1484
(g5
I270
tp1485
asV../data/raw_data/19_0.raw
p1486
(lp1487
(g9
I64
tp1488
asV../data/raw_data/287_0.raw
p1489
(lp1490
(g9
I99
tp1491
asV../data/raw_data/546_0.raw
p1492
(lp1493
(g9
I72
tp1494
asV../data/raw_data/609_0.raw
p1495
(lp1496
(g3
I115
tp1497
asV../data/raw_data/423_0.raw
p1498
(lp1499
(g5
I354
tp1500
asV../data/raw_data/29_3.raw
p1501
(lp1502
(g9
I41
tp1503
asV../data/raw_data/485_4.raw
p1504
(lp1505
(g5
I396
tp1506
asV../data/raw_data/538_1.raw
p1507
(lp1508
(g5
I344
tp1509
asV../data/raw_data/281_1.raw
p1510
(lp1511
(g3
I99
tp1512
asV../data/raw_data/127_1.raw
p1513
(lp1514
(g3
I73
tp1515
asV../data/raw_data/95_9.raw
p1516
(lp1517
(g5
I69
tp1518
asV../data/raw_data/598_0.raw
p1519
(lp1520
(g3
I3
tp1521
asV../data/raw_data/290_0.raw
p1522
(lp1523
(g5
I1
tp1524
asV../data/raw_data/65_2.raw
p1525
(lp1526
(g5
I274
tp1527
asV../data/raw_data/401_1.raw
p1528
(lp1529
(g5
I141
tp1530
asV../data/raw_data/411_8.raw
p1531
(lp1532
(g5
I243
tp1533
asV../data/raw_data/260_0.raw
p1534
(lp1535
(g5
I330
tp1536
asV../data/raw_data/429_2.raw
p1537
(lp1538
(g9
I112
tp1539
asV../data/raw_data/85_2.raw
p1540
(lp1541
(g5
I163
tp1542
asV../data/raw_data/534_0.raw
p1543
(lp1544
(g5
I334
tp1545
asV../data/raw_data/288_0.raw
p1546
(lp1547
(g5
I316
tp1548
asV../data/raw_data/532_0.raw
p1549
(lp1550
(g5
I337
tp1551
asV../data/raw_data/463_0.raw
p1552
(lp1553
(g5
I304
tp1554
asV../data/raw_data/157_2.raw
p1555
(lp1556
(g5
I385
tp1557
asV../data/raw_data/419_3.raw
p1558
(lp1559
(g5
I247
tp1560
asV../data/raw_data/424_6.raw
p1561
(lp1562
(g9
I118
tp1563
asV../data/raw_data/272_2.raw
p1564
(lp1565
(g9
I6
tp1566
asV../data/raw_data/592_0.raw
p1567
(lp1568
(g5
I3
tp1569
asV../data/raw_data/161_0.raw
p1570
(lp1571
(g5
I307
tp1572
asV../data/raw_data/502_2.raw
p1573
(lp1574
(g5
I286
tp1575
asV../data/raw_data/22_1.raw
p1576
(lp1577
(g5
I127
tp1578
asV../data/raw_data/452_0.raw
p1579
(lp1580
(g3
I54
tp1581
asV../data/raw_data/531_0.raw
p1582
(lp1583
(g9
I107
tp1584
asV../data/raw_data/465_1.raw
p1585
(lp1586
(g9
I90
tp1587
asV../data/raw_data/611_1.raw
p1588
(lp1589
(g5
I95
tp1590
asV../data/raw_data/647_1.raw
p1591
(lp1592
(g5
I48
tp1593
asV../data/raw_data/510_1.raw
p1594
(lp1595
(g3
I47
tp1596
asV../data/raw_data/411_4.raw
p1597
(lp1598
(g5
I242
tp1599
asV../data/raw_data/506_0.raw
p1600
(lp1601
(g9
I127
tp1602
asV../data/raw_data/495_2.raw
p1603
(lp1604
(g9
I36
tp1605
asV../data/raw_data/288_2.raw
p1606
(lp1607
(g5
I317
tp1608
asV../data/raw_data/475_0.raw
p1609
(lp1610
(g9
I143
tp1611
asV../data/raw_data/39_1.raw
p1612
(lp1613
(g9
I17
tp1614
asV../data/raw_data/683_0.raw
p1615
(lp1616
(g5
I104
tp1617
asV../data/raw_data/317_0.raw
p1618
(lp1619
(g5
I253
tp1620
asV../data/raw_data/237_1.raw
p1621
(lp1622
(g9
I30
tp1623
asV../data/raw_data/414_1.raw
p1624
(lp1625
(g5
I229
tp1626
asV../data/raw_data/627_0.raw
p1627
(lp1628
(g5
I173
tp1629
asV../data/raw_data/96_0.raw
p1630
(lp1631
(g5
I72
tp1632
asV../data/raw_data/244_2.raw
p1633
(lp1634
(g5
I166
tp1635
asV../data/raw_data/106_2.raw
p1636
(lp1637
(g5
I37
tp1638
asV../data/raw_data/539_3.raw
p1639
(lp1640
(g5
I342
tp1641
asV../data/raw_data/303_0.raw
p1642
(lp1643
(g5
I365
tp1644
asV../data/raw_data/93_12.raw
p1645
(lp1646
(g3
I21
tp1647
asV../data/raw_data/640_2.raw
p1648
(lp1649
(g5
I44
tp1650
asV../data/raw_data/39_2.raw
p1651
(lp1652
(g3
I15
tp1653
asV../data/raw_data/422_1.raw
p1654
(lp1655
(g9
I117
tp1656
asV../data/raw_data/520_4.raw
p1657
(lp1658
(g3
I7
tp1659
asV../data/raw_data/420_0.raw
p1660
(lp1661
(g5
I353
tp1662
asV../data/raw_data/612_2.raw
p1663
(lp1664
(g5
I91
tp1665
asV../data/raw_data/427_2.raw
p1666
(lp1667
(g9
I119
tp1668
asV../data/raw_data/626_0.raw
p1669
(lp1670
(g5
I174
tp1671
asV../data/raw_data/740_0.raw
p1672
(lp1673
(g9
I26
tp1674
asV../data/raw_data/227_1.raw
p1675
(lp1676
(g3
I112
tp1677
asV../data/raw_data/535_0.raw
p1678
(lp1679
(g9
I106
tp1680
asV../data/raw_data/507_1.raw
p1681
(lp1682
(g3
I111
tp1683
asV../data/raw_data/283_0.raw
p1684
(lp1685
(g3
I100
tp1686
asV../data/raw_data/606_0.raw
p1687
(lp1688
(g5
I381
tp1689
asV../data/raw_data/83_1.raw
p1690
(lp1691
(g5
I159
tp1692
asV../data/raw_data/433_2.raw
p1693
(lp1694
(g3
I98
tp1695
asV../data/raw_data/636_0.raw
p1696
(lp1697
(g5
I297
tp1698
asV../data/raw_data/13_1.raw
p1699
(lp1700
(g5
I185
tp1701
asV../data/raw_data/109_1.raw
p1702
(lp1703
(g5
I36
tp1704
asV../data/raw_data/721_1.raw
p1705
(lp1706
(g9
I129
tp1707
asV../data/raw_data/635_0.raw
p1708
(lp1709
(g5
I296
tp1710
asV../data/raw_data/410_2.raw
p1711
(lp1712
(g3
I76
tp1713
asV../data/raw_data/472_1.raw
p1714
(lp1715
(g5
I406
tp1716
asV../data/raw_data/481_3.raw
p1717
(lp1718
(g5
I403
tp1719
asV../data/raw_data/387_0.raw
p1720
(lp1721
(g9
I83
tp1722
asV../data/raw_data/468_2.raw
p1723
(lp1724
(g5
I388
tp1725
asV../data/raw_data/406_3.raw
p1726
(lp1727
(g5
I137
tp1728
asV../data/raw_data/547_1.raw
p1729
(lp1730
(g5
I221
tp1731
asV../data/raw_data/135_3.raw
p1732
(lp1733
(g5
I114
tp1734
asV../data/raw_data/505_1.raw
p1735
(lp1736
(g5
I284
tp1737
asV../data/raw_data/481_5.raw
p1738
(lp1739
(g3
I121
tp1740
asV../data/raw_data/656_0.raw
p1741
(lp1742
(g9
I60
tp1743
asV../data/raw_data/738_0.raw
p1744
(lp1745
(g5
I281
tp1746
asV../data/raw_data/244_0.raw
p1747
(lp1748
(g5
I165
tp1749
asV../data/raw_data/143_0.raw
p1750
(lp1751
(g5
I89
tp1752
asV../data/raw_data/410_1.raw
p1753
(lp1754
(g9
I77
tp1755
asV../data/raw_data/395_0.raw
p1756
(lp1757
(g5
I156
tp1758
asV../data/raw_data/722_1.raw
p1759
(lp1760
(g5
I376
tp1761
asV../data/raw_data/646_0.raw
p1762
(lp1763
(g3
I18
tp1764
asV../data/raw_data/291_0.raw
p1765
(lp1766
(g9
I1
tp1767
asV../data/raw_data/696_0.raw
p1768
(lp1769
(g5
I205
tp1770
asV../data/raw_data/13_2.raw
p1771
(lp1772
(g5
I186
tp1773
asV../data/raw_data/616_3.raw
p1774
(lp1775
(g5
I97
tp1776
asV../data/raw_data/479_2.raw
p1777
(lp1778
(g5
I414
tp1779
asV../data/raw_data/465_2.raw
p1780
(lp1781
(g5
I299
tp1782
asV../data/raw_data/259_4.raw
p1783
(lp1784
(g5
I272
tp1785
asV../data/raw_data/147_0.raw
p1786
(lp1787
(g5
I87
tp1788
asV../data/raw_data/500_0.raw
p1789
(lp1790
(g5
I289
tp1791
asV../data/raw_data/444_0.raw
p1792
(lp1793
(g3
I12
tp1794
asV../data/raw_data/17_0.raw
p1795
(lp1796
(g9
I63
tp1797
asV../data/raw_data/361_0.raw
p1798
(lp1799
(g5
I261
tp1800
asV../data/raw_data/430_0.raw
p1801
(lp1802
(g3
I20
tp1803
asV../data/raw_data/446_2.raw
p1804
(lp1805
(g3
I10
tp1806
asV../data/raw_data/150_0.raw
p1807
(lp1808
(g9
I131
tp1809
asV../data/raw_data/126_0.raw
p1810
(lp1811
(g3
I71
tp1812
asV../data/raw_data/14_0.raw
p1813
(lp1814
(g5
I188
tp1815
asV../data/raw_data/144_0.raw
p1816
(lp1817
(g5
I88
tp1818
asV../data/raw_data/480_3.raw
p1819
(lp1820
(g5
I404
tp1821
asV../data/raw_data/506_1.raw
p1822
(lp1823
(g5
I370
tp1824
asV../data/raw_data/438_0.raw
p1825
(lp1826
(g5
I308
tp1827
asV../data/raw_data/105_4.raw
p1828
(lp1829
(g5
I39
tp1830
asV../data/raw_data/83_3.raw
p1831
(lp1832
(g5
I161
tp1833
asV../data/raw_data/513_3.raw
p1834
(lp1835
(g3
I49
tp1836
asV../data/raw_data/438_4.raw
p1837
(lp1838
(g5
I309
tp1839
asV../data/raw_data/419_2.raw
p1840
(lp1841
(g3
I80
tp1842
asV../data/raw_data/272_3.raw
p1843
(lp1844
(g5
I9
tp1845
asV../data/raw_data/22_0.raw
p1846
(lp1847
(g5
I126
tp1848
asV../data/raw_data/393_0.raw
p1849
(lp1850
(g9
I49
tp1851
asV../data/raw_data/453_0.raw
p1852
(lp1853
(g9
I58
tp1854
asV../data/raw_data/427_4.raw
p1855
(lp1856
(g3
I110
tp1857
asV../data/raw_data/111_2.raw
p1858
(lp1859
(g9
I110
tp1860
asV../data/raw_data/640_1.raw
p1861
(lp1862
(g5
I43
tp1863
asV../data/raw_data/38_0.raw
p1864
(lp1865
(g5
I41
tp1866
asV../data/raw_data/543_3.raw
p1867
(lp1868
(g5
I215
tp1869
asV../data/raw_data/496_1.raw
p1870
(lp1871
(g5
I119
tp1872
asV../data/raw_data/700_0.raw
p1873
(lp1874
(g3
I43
tp1875
asV../data/raw_data/134_1.raw
p1876
(lp1877
(g5
I116
tp1878
asV../data/raw_data/528_2.raw
p1879
(lp1880
(g5
I28
tp1881
asV../data/raw_data/288_1.raw
p1882
(lp1883
(g9
I96
tp1884
asV../data/raw_data/81_1.raw
p1885
(lp1886
(g5
I162
tp1887
asV../data/raw_data/396_0.raw
p1888
(lp1889
(g5
I153
tp1890
asV../data/raw_data/580_0.raw
p1891
(lp1892
(g3
I45
tp1893
asV../data/raw_data/259_1.raw
p1894
(lp1895
(g5
I271
tp1896
asV../data/raw_data/749_0.raw
p1897
(lp1898
(g5
I55
tp1899
asV../data/raw_data/455_2.raw
p1900
(lp1901
(g3
I56
tp1902
asV../data/raw_data/502_1.raw
p1903
(lp1904
(g5
I285
tp1905
asV../data/raw_data/25_3.raw
p1906
(lp1907
(g5
I125
tp1908
asV../data/raw_data/498_1.raw
p1909
(lp1910
(g5
I111
tp1911
asV../data/raw_data/516_0.raw
p1912
(lp1913
(g9
I55
tp1914
asV../data/raw_data/90_0.raw
p1915
(lp1916
(g5
I57
tp1917
asV../data/raw_data/444_2.raw
p1918
(lp1919
(g3
I13
tp1920
asV../data/raw_data/669_0.raw
p1921
(lp1922
(g5
I199
tp1923
asV../data/raw_data/678_0.raw
p1924
(lp1925
(g5
I324
tp1926
asV../data/raw_data/543_0.raw
p1927
(lp1928
(g5
I212
tp1929
asV../data/raw_data/676_2.raw
p1930
(lp1931
(g3
I102
tp1932
asV../data/raw_data/161_1.raw
p1933
(lp1934
(g9
I93
tp1935
asV../data/raw_data/662_1.raw
p1936
(lp1937
(g5
I201
tp1938
a(g5
I202
tp1939
asV../data/raw_data/118_0.raw
p1940
(lp1941
(g5
I349
tp1942
asV../data/raw_data/693_0.raw
p1943
(lp1944
(g5
I203
tp1945
asV../data/raw_data/47_5.raw
p1946
(lp1947
(g5
I392
tp1948
asV../data/raw_data/467_1.raw
p1949
(lp1950
(g9
I92
tp1951
asV../data/raw_data/698_0.raw
p1952
(lp1953
(g5
I208
tp1954
asV../data/raw_data/232_2.raw
p1955
(lp1956
(g5
I84
tp1957
asV../data/raw_data/429_0.raw
p1958
(lp1959
(g5
I350
tp1960
asV../data/raw_data/513_0.raw
p1961
(lp1962
(g5
I169
tp1963
asV../data/raw_data/460_1.raw
p1964
(lp1965
(g5
I303
tp1966
asV../data/raw_data/16_3.raw
p1967
(lp1968
(g5
I192
tp1969
asV../data/raw_data/290_1.raw
p1970
(lp1971
(g5
I2
tp1972
asV../data/raw_data/546_5.raw
p1973
(lp1974
(g5
I219
tp1975
asV../data/raw_data/272_0.raw
p1976
(lp1977
(g5
I8
tp1978
asV../data/raw_data/433_1.raw
p1979
(lp1980
(g3
I97
tp1981
asV../data/raw_data/370_1.raw
p1982
(lp1983
(g3
I40
tp1984
asV../data/raw_data/426_1.raw
p1985
(lp1986
(g9
I120
tp1987
asV../data/raw_data/524_0.raw
p1988
(lp1989
(g9
I9
tp1990
asV../data/raw_data/85_0.raw
p1991
(lp1992
(g9
I51
tp1993
asV../data/raw_data/15_0.raw
p1994
(lp1995
(g5
I187
tp1996
asV../data/raw_data/363_1.raw
p1997
(lp1998
(g9
I82
tp1999
asV../data/raw_data/598_2.raw
p2000
(lp2001
(g9
I4
tp2002
asV../data/raw_data/504_0.raw
p2003
(lp2004
(g9
I88
tp2005
asV../data/raw_data/398_0.raw
p2006
(lp2007
(g9
I135
tp2008
asV../data/raw_data/549_0.raw
p2009
(lp2010
(g3
I69
tp2011
asV../data/raw_data/491_1.raw
p2012
(lp2013
(g5
I123
tp2014
asV../data/raw_data/408_2.raw
p2015
(lp2016
(g5
I38
tp2017
a(g5
I145
tp2018
asV../data/raw_data/236_0.raw
p2019
(lp2020
(g3
I29
tp2021
asV../data/raw_data/706_0.raw
p2022
(lp2023
(g9
I48
tp2024
asV../data/raw_data/29_5.raw
p2025
(lp2026
(g5
I132
tp2027
asV../data/raw_data/364_2.raw
p2028
(lp2029
(g3
I85
tp2030
asV../data/raw_data/538_0.raw
p2031
(lp2032
(g5
I343
tp2033
asV../data/raw_data/95_8.raw
p2034
(lp2035
(g5
I68
tp2036
asV../data/raw_data/523_0.raw
p2037
(lp2038
(g9
I12
tp2039
asV../data/raw_data/429_3.raw
p2040
(lp2041
(g9
I113
tp2042
asV../data/raw_data/146_2.raw
p2043
(lp2044
(g3
I30
tp2045
asV../data/raw_data/603_0.raw
p2046
(lp2047
(g9
I87
tp2048
asV../data/raw_data/396_1.raw
p2049
(lp2050
(g5
I154
tp2051
as.