(lp0
S'(2-ethylhexyl)phthalate (dehp)'
p1
aS'"-bornyl acetate'
p2
aS' isobornyl acetate'
p3
aS' -limonene'
p4
aS' alpha-pinene'
p5
aS' and camphene"'
p6
aS'"1'
p7
aS'3 dimethylamylamine"'
p8
aS'"1'
p9
aS'3-dimethylbutylamine"'
p10
aS'"1'
p11
aS'3-pentadiene"'
p12
aS'"2'
p13
aS'4-dinitrophenol"'
p14
aS'2-methyl-2-propanol'
p15
aS'"3'
p16
aS'3\'-diindolylmethane"'
p17
aS'3- aminotriazole'
p18
aS'"3-monochlor-1'
p19
aS'2-propanediol"'
p20
aS'4- aminotriazole'
p21
aS'4-hexylresorcinol'
p22
aS'4-methoxychalcone'
p23
aS'5-hydroxytryptophan'
p24
aS'6-benzyladenine'
p25
aS'a syrup substance'
p26
aS'abietic acid'
p27
aS'abitol with small amounts of ambroxan and p-methyl acetophenone to enhance odour'
p28
aS'acesulfame k'
p29
aS'acetic acid (synthetic)'
p30
aS'acetildenafil'
p31
aS'acid insoluble ash'
p32
aS'acid whey'
p33
aS'acorns'
p34
aS'acrolein'
p35
aS'acrylamide'
p36
aS'activated carbon'
p37
aS'added color'
p38
aS'added color'
p39
aS'added sugars'
p40
aS'addition of water'
p41
aS'additional meat species'
p42
aS'additives'
p43
aS'"admixture of linalol'
p44
aS' linalyl acetate'
p45
aS' alpha-terpineol'
p46
aS' geranyl'
p47
aS' and neryl acetates with trace amounts of pyrazines"'
p48
aS'adulterated khoya'
p49
aS'adulterated mawa'
p50
aS'aflatoxin'
p51
aS'aflatoxins'
p52
aS'agar'
p53
aS'agric white oil and red color additive'
p54
aS'aircraft machine oil'
p55
aS'alanine'
p56
aS'alaskan pollack'
p57
aS'alcohol'
p58
aS'alcohol'
p59
aS'alcohol'
p60
aS'alcohol-derived vinegar'
p61
aS'aliphatic hydrocarbons'
p62
aS'aliphatic sulphide mixtures'
p63
aS'"aliphatic sulphide mixtures containing 2-propenyl disulphide'
p64
aS' and 1-propenyl disulphide"'
p65
aS'alkaline phosphatase'
p66
aS'alkalinity'
p67
aS'allantoin'
p68
aS'allura red'
p69
aS'allura red ac'
p70
aS'allyl isothiocyanate'
p71
aS'allyl isothiocyanate and color'
p72
aS'almond husk'
p73
aS'almond oil'
p74
aS'almond shell powder'
p75
aS'almonds (butte)'
p76
aS'alopias superciliosus [shark'
p77
aS'alpha-phellandrene and limonene'
p78
aS'"alpha-pinene'
p79
aS' d-3-carene'
p80
aS' myrcene"'
p81
aS'alternate fish species'
p82
aS'aluminium'
p83
aS'aluminium ammonium sulphate'
p84
aS'aluminium sodium sulphate'
p85
aS'aluminum'
p86
aS'aluminum'
p87
aS'aluminum foil'
p88
aS'amaranth'
p89
aS'amaranth'
p90
aS'amaranth color additive'
p91
aS'amaranth dye'
p92
aS'amaranth dye or non-authentic source of anthocyanins'
p93
aS'american caviar'
p94
aS'amidinourea'
p95
aS'amino acids'
p96
aS'aminotriazine'
p97
aS'ammelide'
p98
aS'ammeline'
p99
aS'ammonia'
p100
aS'ammonium chloride'
p101
aS'ammonium nitrate'
p102
aS'ammonium nitrate'
p103
aS'ammonium sulfate'
p104
aS'ammonium sulfate'
p105
aS'and pork products'
p106
aS'androstenedione'
p107
aS'androstenedione'
p108
aS'anglerfish of non-authentic species'
p109
aS'aniline'
p110
aS'animal drug'
p111
aS'"animal fat (lard'
p112
aS' beef tallow'
p113
aS' or chicken fat)"'
p114
aS'animal feed oil'
p115
aS'animal ingredients'
p116
aS'animal protein'
p117
aS'animal-by-product'
p118
aS'animal-derived tyrosine'
p119
aS'animal-feed grade oil'
p120
aS'annato/bixin/norbixin'
p121
aS'annatto'
p122
aS'anthocyannins extracted from black rice'
p123
aS'antibiotics'
p124
aS'antifreeze'
p125
aS'antimony'
p126
aS'antiretroviral drugs (arvs)'
p127
aS'apple juice'
p128
aS'apple juice'
p129
aS'apple or pear puree'
p130
aS'apple puree'
p131
aS'"apple'
p132
aS' plum'
p133
aS' sugar solutions'
p134
aS' red grape juice'
p135
aS' and rhubarb compote"'
p136
aS'apricot kernels'
p137
aS'aregmone oil'
p138
aS'aregmone oil with allyl isothiocyanate and mustard yellow color'
p139
aS'argemone oil'
p140
aS'argemone oil (argemone mexicana)'
p141
aS'argemone oil (argemone mexicana)'
p142
aS'argemone seed oil'
p143
aS'argemone seeds'
p144
aS'argentine honey'
p145
aS'argentine pepper weed'
p146
aS'argentinean sunflower-seed oil'
p147
aS'arginine'
p148
aS'aromatic aldehydes'
p149
aS'aromatic hydrocarbons'
p150
aS'arrowroot'
p151
aS'arrowroot'
p152
aS'arsenic'
p153
aS'arsenic'
p154
aS'arsenic contaminated sodium phosphate'
p155
aS'artificial color'
p156
aS'artificial coloring'
p157
aS'artificial colors'
p158
aS'artificial colors'
p159
aS'artificial flavoring'
p160
aS'artificial milk flavors'
p161
aS'artificial sweeteners'
p162
aS'artificial sweeteners'
p163
aS'artificially colored fennel seeds'
p164
aS'artificially colored filler'
p165
aS'artificially colored non-authentic seed'
p166
aS'ash'
p167
aS'ash colored rice bran'
p168
aS'asian actaea species'
p169
aS'asian basa'
p170
aS'asian catfish'
p171
aS'asian catfish (china basa)'
p172
aS'aspartame'
p173
aS'aspartame'
p174
aS'aspartic acid'
p175
aS'atlantic salmon (salmo salar)'
p176
aS'atropine sulfate'
p177
aS'avocado oil'
p178
aS'azodicarbonamide'
p179
aS'azorubine'
p180
aS'azorubine'
p181
aS'azorubine dye'
p182
aS'bacon'
p183
aS'bacteria'
p184
aS'bad hygienic state'
p185
aS'banded coral shrimp'
p186
aS'barium'
p187
aS'barium sulfate'
p188
aS'barley'
p189
aS'barley (food-grade)'
p190
aS'basa'
p191
aS'basic red 46 dye'
p192
aS'bastard sole'
p193
aS'bearded brotula'
p194
aS'bearded brotula (cuskeel)'
p195
aS'beef'
p196
aS'beef and pork gristle and bones'
p197
aS'beef fat'
p198
aS'beef fat'
p199
aS'beef from unhealthy cattle'
p200
aS'beef hearts'
p201
aS'beef jerky'
p202
aS'beef meat'
p203
aS'beef meat (bos indicus)'
p204
aS'beef meat (grain-fed)'
p205
aS'beef tallow'
p206
aS'beef tallow'
p207
aS'beef unfit for human consumption'
p208
aS'beet fiber'
p209
aS'beet invert syrup'
p210
aS'beet medium invert sugar'
p211
aS'beet medium invert syrup'
p212
aS'beet sugar'
p213
aS'beet sugar'
p214
aS'beluga caviar'
p215
aS'"benzaldehyde'
p216
aS' as the oil"'
p217
aS'benzalkonium chloride'
p218
aS'benzalkonium chloride'
p219
aS'benzalkonium chloride (antimicrobial compound)'
p220
aS'benzene'
p221
aS'benzethonium chloride'
p222
aS'benzethonium chloride'
p223
aS'benzethonium chloride (antimicrobial compound)'
p224
aS'benzo(a)anthracene'
p225
aS'benzo(a)pyrene'
p226
aS'benzo(a)pyrene (bap)'
p227
aS'benzoic acid'
p228
aS'benzoic acid (preservative)'
p229
aS'benzophenone'
p230
aS'"benzyl acetate'
p231
aS' methyl benzoate'
p232
aS' para-cresyl methyl ether'
p233
aS' geranyl acetate'
p234
aS' benzyl benzoate'
p235
aS' benzyl cinnamate'
p236
aS' cedarwood oil'
p237
aS' and others or complete reconstitutions/bases"'
p238
aS'benzyl butyl phthalate (bbp)'
p239
aS'bergamot juice (citrus bergamia risso and poit.)'
p240
aS'bergamot oil (distilled)'
p241
aS"beta-apo-8'-carotenal"
p242
aS'beta-asarone'
p243
aS'beta-carotene'
p244
aS'beta-carotene'
p245
aS'beta-phenylethanol'
p246
aS'"beta-phenylethyl alcohol'
p247
aS' rhodinol fractions'
p248
aS' and cheaper rose oils (morocco'
p249
aS' crimea'
p250
aS' etc.)"'
p251
aS'beta-phenylmethylamine'
p252
aS'"beta-pinene'
p253
aS' undecatrienes"'
p254
aS'betalain pigments derived from red beets'
p255
aS'betanin'
p256
aS'betanine dye'
p257
aS'bigeye thresher shark'
p258
aS'bigeye tuna (thunnus obesus)'
p259
aS'bighead carp [hypophthalmichthys nobilis]'
p260
aS'biotoxin'
p261
aS'bis'
p262
aS'bishop flower'
p263
aS'bisnaga'
p264
aS'biurea'
p265
aS'biuret'
p266
aS'black leaf 40'
p267
aS'black oxide paint'
p268
aS'black rice pigment'
p269
aS'bleach'
p270
aS'bleach liquor'
p271
aS'"blended vinegar (mixture of fermented vinegar'
p272
aS' acetic acid and food additives)"'
p273
aS'blossoms from onopardon acanthium l. mixed with barium sulfate and artificial color'
p274
aS'blotting paper'
p275
aS'bonito (euthynnus affinis)'
p276
aS'borax'
p277
aS'borax and glycerin'
p278
aS'boric acid'
p279
aS'boric acid'
p280
aS'boric acid'
p281
aS'boron'
p282
aS'boron chelate'
p283
aS'boron citrate'
p284
aS'boron glycinate'
p285
aS'bovine bones'
p286
aS'bovine gristle'
p287
aS'bovine milk proteins'
p288
aS'bovine protein'
p289
aS'brachyplatystoma platynemum [common name slobbering catfish]'
p290
aS'bran or saw dust'
p291
aS'brazilwood dye'
p292
aS'brick dust'
p293
aS'brick powder'
p294
aS'"brick powder'
p295
aS' sand'
p296
aS' or dirt"'
p297
aS'brilliant blue fcf'
p298
aS'bromate'
p299
aS'brown peas or soybeans with green color and sodium metabisulfite'
p300
aS'buckwheat'
p301
aS'buckwheat flour'
p302
aS'buri (seriola quinqueradiata)'
p303
aS'burned sugar'
p304
aS'burned tires'
p305
aS'burnt diesel oil'
p306
aS'butanone'
p307
aS'butter of non-authentic geographic origin'
p308
aS'butter yellow dye'
p309
aS'buttermilk whey'
p310
aS'butylated hydroxyanisole'
p311
aS'butylated hydroxytoluene'
p312
aS'by-product of pesticide processing containing salt'
p313
aS'c12 benzalkonium chloride (antimicrobial compound)'
p314
aS'c14 benzalkonium chloride (antimicrobial compound)'
p315
aS'c16 benzalkonium chloride (antimicrobial compound)'
p316
aS'c4 sugars'
p317
aS'cabernet sauvignon wine'
p318
aS'cadmium'
p319
aS'caffeine'
p320
aS'cage eggs'
p321
aS'calcium caprylate'
p322
aS'calcium carbide'
p323
aS'calcium carbide'
p324
aS'calcium carbide powder'
p325
aS'calcium carbonate'
p326
aS'calcium carbonate'
p327
aS'calcium carbonate'
p328
aS'calcium disodium ethylene diamine tetra acetate'
p329
aS'calcium lactate gluconate'
p330
aS'calcium propionate'
p331
aS'calcium sorbate'
p332
aS'"camphor'
p333
aS' isobornyl acetate (+ eucalyptus and turpentine oil fractions)"'
p334
aS'"cananga oil (cananga odorata)'
p335
aS' ylang ylang oil tails'
p336
aS' and ylang ylang oil reconstitutions"'
p337
aS'cane invert syrup'
p338
aS'cane or corn sugars'
p339
aS'cane sucrose'
p340
aS'cane sugar'
p341
aS'cane sugar'
p342
aS'cane sugar syrup'
p343
aS'cane sugar syrup'
p344
aS'canola oil'
p345
aS'canola oil'
p346
aS'canola oil and soybean oil'
p347
aS'cape'
p348
aS'cape dory'
p349
aS'cape gurnard'
p350
aS'capsaicin'
p351
aS'capsaicinoids'
p352
aS'capsicum'
p353
aS'carageenan'
p354
aS'caramel'
p355
aS'caramel'
p356
aS'caramel coloring'
p357
aS'caramelized sugar'
p358
aS'carbide'
p359
aS'carbide'
p360
aS'carbonate of lime'
p361
aS'carboxymethyl cellulose'
p362
aS'carboxymethyl-cellulose'
p363
aS'carmalized sugar'
p364
aS'carmines'
p365
aS'carmoisine'
p366
aS'carnuba wax'
p367
aS'carob powder'
p368
aS'carrageenan'
p369
aS'cashew'
p370
aS'cassava flour'
p371
aS'cassia'
p372
aS'cassia'
p373
aS'cassia cinnamon'
p374
aS'caster oil'
p375
aS'castor oil'
p376
aS'cat meat'
p377
aS'catfish'
p378
aS'catfish'
p379
aS'catfish roe'
p380
aS'caustic soda'
p381
aS'caustic soda'
p382
aS'caustic soda sodium chloride and formalin'
p383
aS'cedar wood stearin'
p384
aS'cedarwood oil'
p385
aS'cedarwood oil chinese (cupressus funebris)'
p386
aS'cellulose'
p387
aS'cellulose'
p388
aS'central american coffee beans'
p389
aS'cereals'
p390
aS'cesium'
p391
aS'cetrimonium bromide (antimicrobial compound)'
p392
aS'chalk'
p393
aS'chalk powder'
p394
aS'chanodichthys mongolicus'
p395
aS'cheap bulk wine from south america'
p396
aS'cheap edible oil'
p397
aS'cheap french table wine'
p398
aS'cheap red wine'
p399
aS'cheap rice from asia'
p400
aS'cheap spanish oil'
p401
aS'cheaper apple juice concentrates'
p402
aS'cheaper flatfish species'
p403
aS'cheaper oils'
p404
aS'cheaper refined olive oils'
p405
aS'cheaper tropical tuna species'
p406
aS'cheaper white grape juice concentrates'
p407
aS'cheese of non-authentic geographic origin'
p408
aS'cheese substitute'
p409
aS'cheese whey'
p410
aS'chemical contamination'
p411
aS'chemical dyes'
p412
aS'chemical powder'
p413
aS'chemical whiteners'
p414
aS'chemicals'
p415
aS'chestnut flour'
p416
aS'chestnut shell'
p417
aS'chicken'
p418
aS'chicken and turkey meat'
p419
aS'chicken blood'
p420
aS'chicken buttocks'
p421
aS'chicken fat'
p422
aS'chicken feed (conventional)'
p423
aS'chicken meat'
p424
aS'chicken meat'
p425
aS'chicken meat from non-corn-fed chickens'
p426
aS'chickpea'
p427
aS'chickpea flour'
p428
aS'chicory'
p429
aS'chicory powder'
p430
aS'chilean salmon'
p431
aS'chilled cuttlefish'
p432
aS'china  clay'
p433
aS'chinese catfish'
p434
aS'chinese garlic'
p435
aS'chinese honey'
p436
aS'chinese potato'
p437
aS'chinese salmon'
p438
aS'chinese shrimp'
p439
aS'chinese tangerines'
p440
aS'chinese-produced infant formula'
p441
aS'chloramphenicol'
p442
aS'chloramphenicol'
p443
aS'chlorine'
p444
aS'chlorine dioxide'
p445
aS'chloroflurocarbons'
p446
aS'chloroform'
p447
aS'chloroform'
p448
aS'"chloroform'
p449
aS' acetone'
p450
aS' and isopropyl alcohol"'
p451
aS'chlorophenol'
p452
aS'chlorophyll'
p453
aS'chlorophylls'
p454
aS'chlorophylls (copper complexes of)'
p455
aS'choline'
p456
aS'choti elaichi seeds'
p457
aS'christmas hampers'
p458
aS'chromium'
p459
aS'chromium amino acid chelate'
p460
aS'chromium nicotinate'
p461
aS'"chromium nicotinate'
p462
aS' calcium potassium phosphate-citrate'
p463
aS' zinc glycinate chelate'
p464
aS' copper glycinate chelate'
p465
aS' manganese glycinate chelate"'
p466
aS'chromium polynicotinate'
p467
aS'"cinnamomum camphora (var. cineole type) fractions (1'
p468
aS'8-cineole rich)"'
p469
aS'cinnamon leaf oil'
p470
aS'ciprofloxacin'
p471
aS'citral'
p472
aS'citrate'
p473
aS'citric acid'
p474
aS'citric acid'
p475
aS'citric acid'
p476
aS'citric acid (c4 or paraffin derived)'
p477
aS'citric acid from non-authentic source'
p478
aS'"citronella oil (java type'
p479
aS' cymbopogon winterianus)"'
p480
aS'"citrulline malate'
p481
aS' arginine alphaketoglutarate'
p482
aS' beta-alanine"'
p483
aS'"citrulline malate'
p484
aS' beta-alanine"'
p485
aS'citrus oils of non-authentic origin'
p486
aS'citrus peel extract'
p487
aS'clay'
p488
aS'cleaning lye'
p489
aS'clenbuterol'
p490
aS'"clove fractions'
p491
aS' eugenol'
p492
aS' and cinnamic aldehyde"'
p493
aS'clove stem oil and isolates (eugenol) and eugenyl acetate'
p494
aS'coagulant'
p495
aS'cochineal color from non-authentic geographic origin'
p496
aS'cochinela dye'
p497
aS'cockspur grass'
p498
aS'cocoa butter replacer'
p499
aS'cocoa butter substitute'
p500
aS'cocoa husks'
p501
aS'cocoa shells'
p502
aS'coconut hulls'
p503
aS'coconut oil'
p504
aS'coconut oil'
p505
aS'cod'
p506
aS'cod (gadus morhua)'
p507
aS'"cod'
p508
aS' baltic sea"'
p509
aS'coffee (robusta)'
p510
aS'coffee (robusta)'
p511
aS'coffee husk'
p512
aS'coffee husk or cereals'
p513
aS'coffee husk or parchment'
p514
aS'coffee husks'
p515
aS'coffee husks/parchment'
p516
aS'coffee husks/parchments'
p517
aS'coffee of non-authentic botanical origin'
p518
aS'coffee of non-authentic geographic origin'
p519
aS'coffee of non-authentic origin'
p520
aS'coffee of non-authentic species'
p521
aS'coffee twigs'
p522
aS'collagenic animal protein'
p523
aS'color'
p524
aS'color additive'
p525
aS'color additive'
p526
aS'color additives'
p527
aS'color basic red 46'
p528
aS'color butter yellow'
p529
aS'color chilli sauce'
p530
aS'color fast garnet'
p531
aS'color gardenia yellow'
p532
aS'"color gardenia yellow'
p533
aS' flavonoid"'
p534
aS'color methyl yellow'
p535
aS'color migration'
p536
aS'color orange ii'
p537
aS'color orange rn'
p538
aS'color para red'
p539
aS'color red sandalwood extract'
p540
aS'color red yeast rice'
p541
aS'color rhodamine b'
p542
aS'color rose bengal'
p543
aS'color rosella extract'
p544
aS'color sudan'
p545
aS'color sudan 1'
p546
aS'"color sudan 1'
p547
aS'sudan 3"'
p548
aS'color sudan 3'
p549
aS'color sudan 4'
p550
aS'color sudan red b'
p551
aS'color toluidine red'
p552
aS'colorants'
p553
aS'colorants'
p554
aS'colored corn silk fibers'
p555
aS'colored corn strings'
p556
aS'colored grass'
p557
aS'colored grass seeds'
p558
aS'colored saw dust'
p559
aS'colored sawdust'
p560
aS'colored seeds from non-authentic plant'
p561
aS'colored tea leaves'
p562
aS'coloring agents'
p563
aS'colors'
p564
aS'colors'
p565
aS'commercial glucose'
p566
aS'common vetch (vicia sativa l.)'
p567
aS'common wheat (triticum aestivum)'
p568
aS'concrete'
p569
aS'condemned/contaminated chicken meat'
p570
aS'contaminated water'
p571
aS'contaminated with dioxins'
p572
aS'cooking oil'
p573
aS'copper'
p574
aS'"copper chelate'
p575
aS' manganese chelate'
p576
aS' iron amino acid chelate'
p577
aS' zinc amino acid chelate'
p578
aS' potassium chelate"'
p579
aS'copper chlorophyllin'
p580
aS'copper cholorphyllin'
p581
aS'copper complexes of chlorophylls and chlorophyllins'
p582
aS'copper salts'
p583
aS'coriander'
p584
aS'coriander husk'
p585
aS'corn'
p586
aS'corn'
p587
aS'corn additives'
p588
aS'corn derived sweeteners'
p589
aS'corn flour'
p590
aS'corn flour and bengal gram (cicer arietinum)'
p591
aS'corn oil'
p592
aS'corn silk colored with red dye'
p593
aS'corn starch'
p594
aS'corn sugar'
p595
aS'corn sugar'
p596
aS'corn syrup'
p597
aS'corn syrup'
p598
aS'corn syrup and beet or cane invert syrup'
p599
aS'"corn syrup'
p600
aS' inverted syrups'
p601
aS' or high-fructose corn syrup"'
p602
aS'corn-derived vinegar'
p603
aS'cornmint oil (mentha antensis)'
p604
aS'cornmint oil (mentha arvensis)'
p605
aS'cornmint oil from mentha arvensis var. piperascens'
p606
aS'corrosion of'
p607
aS'corvina'
p608
aS'cosmetic-grade oils'
p609
aS'cotton'
p610
aS'cotton seed oil'
p611
aS'cottonseed oil'
p612
aS'cottonseed oil'
p613
aS'cough medicine'
p614
aS'coumaphos (organophosphate insecticide)'
p615
aS'coumarin'
p616
aS'coumarin'
p617
aS'counterfeit'
p618
aS'counterfeit alcohol'
p619
aS'counterfeit borjomi mineral water'
p620
aS'counterfeit chocolate bars'
p621
aS'counterfeit cocoa powder'
p622
aS'counterfeit coffee'
p623
aS'counterfeit cognac'
p624
aS'counterfeit custard powder'
p625
aS'counterfeit fruit juice'
p626
aS'counterfeit ghee'
p627
aS'counterfeit infant formula'
p628
aS'counterfeit jamaican mountain blue coffee'
p629
aS'counterfeit juice'
p630
aS'counterfeit ketchup'
p631
aS'counterfeit likani mineral water'
p632
aS'counterfeit nestle milo'
p633
aS'counterfeit oil'
p634
aS'counterfeit red bull'
p635
aS'counterfeit smirnoff vodka'
p636
aS'counterfeit soft drinks'
p637
aS'counterfeit spaghetti'
p638
aS'counterfeit vodka'
p639
aS'counterfeit whisky'
p640
aS'counterfeit wine'
p641
aS'cow tallow'
p642
aS"cow's cheese"
p643
aS"cow's milk"
p644
aS'cracker meal'
p645
aS'crawfish'
p646
aS'crimson snapper'
p647
aS'cristalsulphate'
p648
aS"crocus's yellow stamen"
p649
aS'crushed insects'
p650
aS'crustacean of non-authentic species'
p651
aS'csr 30 rice'
p652
aS'cum (or keta) salmon'
p653
aS'cuminaldehyde'
p654
aS'curcuma (curcuma longa l.)'
p655
aS'curcuma zedoaria'
p656
aS'curcuma zedoaria powder'
p657
aS'curcumin'
p658
aS'curcumin'
p659
aS'curcumin dye'
p660
aS'curuma'
p661
aS'cyanamide'
p662
aS'cyanide'
p663
aS'cyanide'
p664
aS'cyanuric acid'
p665
aS'cyanuric acid'
p666
aS'cyclamate'
p667
aS'cyclamate'
p668
aS'cyclamate'
p669
aS'cynoglossus senegalensis'
p670
aS'cynoscion virescenes [common name weakfish or corvina]'
p671
aS'cyromazine'
p672
aS'cyromazine'
p673
aS'd-aspartic acid'
p674
aS'd-malic acid'
p675
aS'dalda'
p676
aS'damaged olives'
p677
aS'damaged or overripe olives'
p678
aS'dasyatis bennetti'
p679
aS'decyltrimethylammonium chloride (antimicrobial compound)'
p680
aS'defatted cloves'
p681
aS'defatted paprika'
p682
aS'deg'
p683
aS'dehydrated red beets'
p684
aS'dehydroepiandrosterone'
p685
aS'denatured rapeseed oil not fit for consumption'
p686
aS'detergent'
p687
aS'detergent'
p688
aS'detergent'
p689
aS'dextrin'
p690
aS'dextrose'
p691
aS'dextrose'
p692
aS'dextrose or disaccahrides'
p693
aS'dextrose syrup'
p694
aS'di-(2-ethylhexyl)phthalate (dehp)'
p695
aS'di-2-ethylhexyl phthalate (dehp)'
p696
aS'di-isononyl phthalate (dinp)'
p697
aS'di-n-octyl phthalate (dnop)'
p698
aS'dibutyl phthalate'
p699
aS'dibutyl phthalate (dbp)'
p700
aS'dicyandiamide'
p701
aS'diesel oil'
p702
aS'diet pills'
p703
aS'dietary supplement'
p704
aS'diethylene glycol'
p705
aS'diethylene glycol'
p706
aS'diethylene glycol'
p707
aS'diethylhexyl phthalate'
p708
aS'diethylhexyl pthalate (dehp)'
p709
aS'diisobutyl phthalate'
p710
aS'diisobutyl phthalate'
p711
aS'diisodecyl phthalate (didp)'
p712
aS'diisononyl phthalate (dinp)'
p713
aS'"diluent solvents including: abitol'
p714
aS' benzyl alcohol'
p715
aS' benzyl benzoate'
p716
aS' carbitol (diethylene glycol monoethyl ether)'
p717
aS' diacetone alcohol'
p718
aS' dipropylene glycol'
p719
aS' dipropylene glycol methyl ether and tripropylene glycol methyl ether'
p720
aS' hydrogenated methyl ester of ro"'
p721
aS'dimethyl yellow'
p722
aS'dimethylsildenafil'
p723
aS'dioxin-like polychlorobifenyls'
p724
aS'dioxins'
p725
aS'diphosphate'
p726
aS'disodium diphosphate'
p727
aS'disodium ethylene diamine tetra acetate'
p728
aS'distilled oils'
p729
aS'dl-malic acid'
p730
aS'dog (canine) meat'
p731
aS'dogfish'
p732
aS'donkey'
p733
aS'doxylamine'
p734
aS'dried fruit of west indian lantana (lantana camara)'
p735
aS'dry milk'
p736
aS'duck protein'
p737
aS'dulcin'
p738
aS'dung'
p739
aS'dung powder'
p740
aS'dushuqiang'
p741
aS'dusky cob'
p742
aS'dust'
p743
aS'dye'
p744
aS'dyed pork'
p745
aS'dyed saw dust'
p746
aS'dyed strips of other parts of the saffron plant (stamens or perigonia)'
p747
aS'dyes'
p748
aS'dyes'
p749
aS'e 260 synthetic acetic acid'
p750
aS'e. coli'
p751
aS'e.coli'
p752
aS'e141 food additive'
p753
aS'earth material/powdered stone'
p754
aS'edible oil'
p755
aS'elderberry pigments'
p756
aS'emperor fish'
p757
aS'emperor snapper'
p758
aS'engine oil'
p759
aS'enrofloxacin'
p760
aS'enterobacteriaceae'
p761
aS'ephedrine'
p762
aS'ephedrine alkaloids'
p763
aS'epigallocathechine gallate'
p764
aS'erucic acid'
p765
aS'erythorbic acid'
p766
aS'erythrosine'
p767
aS'erythrosine'
p768
aS'escolar'
p769
aS'"escolar (lepidocybium\n'
p770
aS'flavobrunneum)"'
p771
aS'essential oils'
p772
aS'ethanol'
p773
aS'ethanol'
p774
aS'"ethanol'
p775
aS' methanol'
p776
aS' or water"'
p777
aS'"ethyl esters of aliphatic acids (e.g.'
p778
aS' ethyl oenanthate)"'
p779
aS'ethyl maltol'
p780
aS'ethyl maltol'
p781
aS'ethyl tertiairy buthyl ether'
p782
aS'ethyl vanillin'
p783
aS'ethyl-p-hydroxybenzoate'
p784
aS'ethylcarbamate'
p785
aS'ethylene glycol'
p786
aS'ethylenediaminetetraacetic acid'
p787
aS'"eucalyptus and white camphor oil fractions'
p788
aS' spanish sage oil"'
p789
aS'eucalyptus citriodora'
p790
aS'eucalyptus oil (eucalyptus globulus) and camphor oil white (cinnamomum camphora)'
p791
aS'evodiamine'
p792
aS'expired beef'
p793
aS'expired broiler turkeys'
p794
aS'expired buns'
p795
aS'expired chicken'
p796
aS'expired chicken feet'
p797
aS'expired drinks'
p798
aS'expired duck meat'
p799
aS'expired ground beef'
p800
aS'expired meat'
p801
aS'expired milk'
p802
aS'expired milk powder'
p803
aS'expired products'
p804
aS'expired smoked sausage'
p805
aS'expired vegetables'
p806
aS'expressed lime or grapefruit oil'
p807
aS'extra virgin olive oil from non-authentic botanical origin or geographic region'
p808
aS'extra virgin olive oil of non-authentic botanical origin'
p809
aS'fabric dye'
p810
aS'fake alomo bitters'
p811
aS'"fake eggs made of alginic acid'
p812
aS' potassium'
p813
aS' calcium chloride'
p814
aS' gelatin'
p815
aS'\n'
p816
aS'paraffin'
p817
aS' artificial coloring and water"'
p818
aS'fake liquor'
p819
aS'fake milk'
p820
aS'"fake milk (oil'
p821
aS' urea'
p822
aS' detergent'
p823
aS' caustic soda'
p824
aS' sugar'
p825
aS' salt'
p826
aS' and skim milk powder)"'
p827
aS'fake milk containing sodium bicarbonate'
p828
aS'fake milk with anionic detergents'
p829
aS'fake protein powder with melamine'
p830
aS'fake rice made from plastic resin and potato starch'
p831
aS'fake shrimp paste'
p832
aS'fake vodka'
p833
aS'"fake'
p834
aS' engineered eggs"'
p835
aS'false black pepper (embelia ribes)'
p836
aS'farina wheat'
p837
aS'farm raised asian catfish'
p838
aS'farm raised non-us shrimp'
p839
aS'farm-raised asian catfish'
p840
aS'farm-raised atlantic salmon (salmo salar)'
p841
aS'farm-raised salmon'
p842
aS'farm-raised shrimps from outside of the usa'
p843
aS'fast green fcf / fd&c green'
p844
aS'fat trimmings'
p845
aS'fatty aldehydes and monoterpene alcohols and esters to terpeneless and folded citrus oils'
p846
aS'fd&c red no. 3'
p847
aS'fd&c red no. 40'
p848
aS'fd&c yellow #5'
p849
aS'fd&c yellow no. 5'
p850
aS'fd&c yellow no. 6'
p851
aS'fennel seeds'
p852
aS'fennel seeds'
p853
aS'fennel seeds coated with marble dust'
p854
aS'fenthion'
p855
aS'fenugreek gum'
p856
aS'fermentation derived vanillin'
p857
aS'ferrous glucomate'
p858
aS'fibers of dried animal meats'
p859
aS'fig juice'
p860
aS'figs'
p861
aS'fine plastic crystals'
p862
aS'fish'
p863
aS'fish of non-authentic species'
p864
aS'flathead sole'
p865
aS'flavor-enhanced soybean oil'
p866
aS'flavoring agents'
p867
aS'flavors'
p868
aS'flavourings'
p869
aS'flax'
p870
aS'floral waste'
p871
aS'flour'
p872
aS'flour'
p873
aS'flowers from arnica'
p874
aS'flowers from calendula'
p875
aS'flowers from calendula (calendula officinalis l.) colored with methyl orange'
p876
aS'flowers from curcuma'
p877
aS'flowers from marigold'
p878
aS'"flowers from non-authentic botanical origin cut into strips (papaver rhoeas l.'
p879
aS' punica granatum l.'
p880
aS' arinica montana l.'
p881
aS' or scolymus hispanicus l.)"'
p882
aS'flowers from safflower (carthamus tinctorius l.)'
p883
aS'flunixin'
p884
aS'fluoride'
p885
aS'folic acid'
p886
aS'food additive cellulose acetate phtalate'
p887
aS'food additive formic acid'
p888
aS'food additive isopropyl alcohol'
p889
aS'food additive propylene oxide'
p890
aS'food additive sodium polyacrylate'
p891
aS'food additive white mineral oil'
p892
aS'food coloring'
p893
aS'food gums'
p894
aS'food starches'
p895
aS'food supplement'
p896
aS'food supplements'
p897
aS'foreign farm-raised shrimp'
p898
aS'formaldehyde'
p899
aS'formaldehyde'
p900
aS'formalin'
p901
aS'formol'
p902
aS'fox'
p903
aS'fox meat'
p904
aS'fragrance'
p905
aS'fraud with'
p906
aS'free fatty acids'
p907
aS'free glucose or sucrose'
p908
aS'frigate mackerel (auxis thazard)'
p909
aS'frozen turkey breast'
p910
aS'frozen whole cleaned cuttlefish'
p911
aS'fructose'
p912
aS'fructose and glucose mixture'
p913
aS'fructose syrup'
p914
aS'"fructose'
p915
aS' glucose'
p916
aS' and sucrose"'
p917
aS'fruit from non-authentic botanical origin'
p918
aS'fruit jelly cups'
p919
aS'fruit jelly mix'
p920
aS'fruit juice'
p921
aS'fruit puree from non-authentic botanical origin'
p922
aS'fuchsin color'
p923
aS'fulvic acid'
p924
aS'fumaric acid'
p925
aS'fungus'
p926
aS'furazolidone'
p927
aS'galeorhinus galeus [market names: shark or school shark]'
p928
aS'gamma butyrolactone'
p929
aS'gamma-aminobutyric acid'
p930
aS'"gamma-terpinene'
p931
aS' dimethyl anthranilate'
p932
aS' alpha-sinesal'
p933
aS' and perilla aldehyde to convert to mandarin oil (citrus reticulata var. mandarin)"'
p934
aS'gammahydroxibutyrate'
p935
aS'garcinia cambogia desr'
p936
aS'gardenia yellow dye'
p937
aS'gelatin'
p938
aS'gelatin'
p939
aS'gelatin of non-authentic animal origin (porcine or bovine)'
p940
aS'gelatine (bovine)'
p941
aS'gelatine (porcine)'
p942
aS'genidens barbus [common name white sea catfish or bagre]'
p943
aS'geraniol'
p944
aS'"germanium'
p945
aS' lithium"'
p946
aS'giant pangasius [pangasius sanitwongsei]'
p947
aS'ginger'
p948
aS'ginseng'
p949
aS'ginseng of non-authentic botanical origin'
p950
aS'"ginseng'
p951
aS' american (panax quinquefolius)"'
p952
aS'"ginseng'
p953
aS' chinese (panax ginseng)"'
p954
aS'giraffe'
p955
aS"glauber's salt"
p956
aS'glucose'
p957
aS'glucose'
p958
aS'glucose and fructose'
p959
aS'glucose syrup'
p960
aS'glue'
p961
aS'glutamates'
p962
aS'glutamic acid'
p963
aS'glutamic acid'
p964
aS'gluten'
p965
aS'gluten'
p966
aS'glycerin'
p967
aS'glycerine'
p968
aS'glycerol monocaprylate'
p969
aS'glycine'
p970
aS'glycine'
p971
aS'glycine'
p972
aS'glyerin'
p973
aS'goat'
p974
aS'goat fat'
p975
aS'goat meat'
p976
aS'gold'
p977
aS'goldbanded jobfish'
p978
aS'golden corn flavor'
p979
aS'golden pompano'
p980
aS'grain flours'
p981
aS'"grains or legumes (wheat'
p982
aS' barley'
p983
aS' kidney bean'
p984
aS' etc.)"'
p985
aS'grape derived juices or wines'
p986
aS'grape juice'
p987
aS'grape juice and grape skin color'
p988
aS'grape seed oil'
p989
aS'grape wine from non-authentic botanical origin'
p990
aS'grape wine from non-authentic geographic origin'
p991
aS'grapefruit juice'
p992
aS'grapefruit juice plus synthetic sugar/acid mixture'
p993
aS'grapefruit oil'
p994
aS'grapeseed oil'
p995
aS'grapeseed oil (desterolilzed)'
p996
aS'grass powder'
p997
aS'grass seeds colored with charcoal dust'
p998
aS'greek olive oil'
p999
aS'green colorant'
p1000
aS'green dye'
p1001
aS'green jobfish'
p1002
aS'green jobfish (jobfish or snapper)'
p1003
aS'green s'
p1004
aS'green weak fish'
p1005
aS'greenling'
p1006
aS'grit'
p1007
aS'ground coconut shells'
p1008
aS'ground corn'
p1009
aS'ground mustard husks'
p1010
aS'ground nut flour'
p1011
aS'ground olive stone'
p1012
aS'ground papaya seeds'
p1013
aS'ground peanut shells'
p1014
aS'ground pepper husks'
p1015
aS'ground pork meat'
p1016
aS'ground red pepper (capsicum annuum l.)'
p1017
aS'ground rice'
p1018
aS'grouper'
p1019
aS'grouper (farm-raised)'
p1020
aS'growth hormone releasing peptide -2'
p1021
aS'guaiacol'
p1022
aS'guanidine'
p1023
aS'guar gum'
p1024
aS'guggulsterone'
p1025
aS'gum'
p1026
aS'gum'
p1027
aS'gum from acacia seyal'
p1028
aS'gum from combretum erythrophyllum'
p1029
aS'gum from non-authentic botanical origin'
p1030
aS'gum talha (acacia seyal)'
p1031
aS'gurjun balsam (dipterocarpus spp.)'
p1032
aS'gurjun balsam oil'
p1033
aS'gutter oil'
p1034
aS'gutter oil (recycled oil)'
p1035
aS'gypsum'
p1036
aS'gypsum powder'
p1037
aS'hackleback roe'
p1038
aS'haddock'
p1039
aS'haddock'
p1040
aS'haddock (china origin)'
p1041
aS'haddock (melanogrammus aeglefinus)'
p1042
aS'haddok'
p1043
aS'hake'
p1044
aS'hake fish of non-authentic species'
p1045
aS'hake or coley fish'
p1046
aS'hazardous materials'
p1047
aS'hazelnut oil'
p1048
aS'heat-processed milk'
p1049
aS'heavy metals'
p1050
aS'heliotrope oil'
p1051
aS'hepatitis a virus'
p1052
aS'herb'
p1053
aS'herbaceous plants cut into strips and dyed with azo or cochineal dye'
p1054
aS'herbs'
p1055
aS'herring'
p1056
aS'hexamethylene tetramine'
p1057
aS'hexavalent chromium'
p1058
aS'high linoleic/oleic sunflower oil'
p1059
aS'high oleic sunflower oil'
p1060
aS'high oleic-acid sunflower oil'
p1061
aS'high-fructose corn syrup'
p1062
aS'high-fructose corn syrup'
p1063
aS'"high-fructose corn syrup'
p1064
aS' cane sugar hydrolysates'
p1065
aS' or beet sugar hydrolysates"'
p1066
aS'high-fructose inulin syrup'
p1067
aS'high-fructose syrup'
p1068
aS'high-oleic seed oil of non-authentic botanical origin'
p1069
aS'high-oleic sunflower oil'
p1070
aS'histamine'
p1071
aS'histamine'
p1072
aS'histidine'
p1073
aS'ho oil rectified (cinnamomum spp.) and acetylated ho or acetylated lavandin oils'
p1074
aS'hogget'
p1075
aS'honey'
p1076
aS'honey'
p1077
aS'honey from non-authentic botanical or geographic origin'
p1078
aS'honey from non-authentic botanical origin'
p1079
aS'honey from non-authentic geographic origin'
p1080
aS'honey from non-authentic geographic region'
p1081
aS'honey of non-authentic botancial origin'
p1082
aS'honey of non-authentic botanical or geographic origin'
p1083
aS'honey of non-authentic botanical origin'
p1084
aS'honey of non-authentic geographic or botanical origin'
p1085
aS'honey of non-authentic geographic origin'
p1086
aS'honey of non-authentic geographic origin)'
p1087
aS'honey with chloramphenicol'
p1088
aS'horse meat'
p1089
aS'horse meat'
p1090
aS'husks'
p1091
aS'hydrocarbons'
p1092
aS'hydrochloric acid'
p1093
aS'hydrogen peroxide'
p1094
aS'hydrogen peroxide'
p1095
aS'hydrogen peroxide'
p1096
aS'hydrogenated fats'
p1097
aS'hydrogenated soybean oil'
p1098
aS'hydrogenated vegetable oil'
p1099
aS'hydrolyzed inulin'
p1100
aS'hydrolyzed leather'
p1101
aS'hydroxymethylfurfural'
p1102
aS'hydroxymethylfurfural'
p1103
aS'hydroxyproline'
p1104
aS'hypochlorite'
p1105
aS'hypochlorite'
p1106
aS'"idebenone'
p1107
aS' vinpocetine'
p1108
aS' vincamine"'
p1109
aS'illegal import of'
p1110
aS'illegal sulphites'
p1111
aS'illegal trade of'
p1112
aS'imitation carbonated beverage'
p1113
aS'imitation cheese products'
p1114
aS'imitation crab'
p1115
aS'imitation scallops'
p1116
aS'imitation shark fin'
p1117
aS'imported olive oil'
p1118
aS'imported sugar'
p1119
aS'impure water'
p1120
aS'indian geranium oil'
p1121
aS'indigotine / indigo carmine'
p1122
aS'indonesian patchouli oil blended with the cheaper chinese oil'
p1123
aS'industrial alcohol'
p1124
aS'industrial alcohol'
p1125
aS'industrial chemicals'
p1126
aS'industrial gelatin dervied from waste leather'
p1127
aS'industrial grade salt'
p1128
aS'industrial oils contaminated with triorthocresyl phosphate (tocp)'
p1129
aS'industrial salt'
p1130
aS'industrial salts'
p1131
aS'industrial solvents'
p1132
aS'industrial sugar syrups'
p1133
aS'industrial synthetic resins'
p1134
aS'infant formula with soy or dairy allergens'
p1135
aS'inner coating peeling off'
p1136
aS'insects'
p1137
aS'insufficient alcohol levels'
p1138
aS'insufficient weight'
p1139
aS'invert beet sugar'
p1140
aS'invert cane sugar'
p1141
aS'invert sugar'
p1142
aS'invert sugar'
p1143
aS'invert sugar syrup'
p1144
aS'invert sugar syrups'
p1145
aS'invert syrups (beet or cane)'
p1146
aS'inverted beet syrup'
p1147
aS'inverted cane sugar'
p1148
aS'inverted cane syrup'
p1149
aS'inverted sugar'
p1150
aS'inverted syrup'
p1151
aS'iodine'
p1152
aS'iodine'
p1153
aS'iranian saffron'
p1154
aS'iron'
p1155
aS'iron filings'
p1156
aS'irradiation'
p1157
aS'isobutyl angelate and bisabolols'
p1158
aS'isobutylidene diurea'
p1159
aS'isoglucose syrup'
p1160
aS'isoleucine'
p1161
aS'isopropanol'
p1162
aS'isopropyl'
p1163
aS'isopropyl alcohol'
p1164
aS'isurus oxyrinchus [shark'
p1165
aS'japanese amberjack'
p1166
aS'japanese mashrooms'
p1167
aS'japanese sea bass'
p1168
aS'japanese sea bass (lateolabrax japonicus)'
p1169
aS'japanese seabass (lateolabrax japonicus)'
p1170
aS'japanese star anise'
p1171
aS'japanese star anise (illicium anisatum linn)'
p1172
aS'jelly mini-cups containing agar e 406'
p1173
aS'jelly mini-cups containing carrageenan e 407'
p1174
aS'jellyfish'
p1175
aS'john dory'
p1176
aS'juice from non-authentic botanical origin'
p1177
aS'juice from non-authentic fruit'
p1178
aS'juice from non-authentic geographic origin'
p1179
aS'juice of non-authentic botanical origin'
p1180
aS'juniper berry'
p1181
aS'k acesulfame'
p1182
aS'kaempferol'
p1183
aS'kangaroo'
p1184
aS'kangaroo meat'
p1185
aS'kerosence'
p1186
aS'kerosene oil'
p1187
aS'kesari dal'
p1188
aS'khesari dal'
p1189
aS'khesari dal (lathyrus sativus)'
p1190
aS'khesari dal or lathyrus sativus'
p1191
aS'"king mackerel (scomberomorus\n'
p1192
aS'cavalla)"'
p1193
aS'kleingrass'
p1194
aS'konjac'
p1195
aS'konjac gum'
p1196
aS'l-alanine'
p1197
aS'l-arginine'
p1198
aS'l-carnitine fumarate'
p1199
aS'l-glutamine'
p1200
aS'l-isoleucine'
p1201
aS'l-leucine'
p1202
aS'l-lysine'
p1203
aS'l-lysine hydrochloride'
p1204
aS'l-threonine'
p1205
aS'l-tryptophan'
p1206
aS'l-valine'
p1207
aS'l. citriodora herb distilled over lemon oil'
p1208
aS'lactose'
p1209
aS'lactose'
p1210
aS'lake victoria perch'
p1211
aS'lake victoria perch'
p1212
aS'lamb'
p1213
aS'lamb meat'
p1214
aS'lamb oil'
p1215
aS'lambsquarters'
p1216
aS'lamp oil'
p1217
aS'lampante oil'
p1218
aS'lampante or refined olive oil'
p1219
aS'lane snapper'
p1220
aS'lane snapper (lutjanus synagris)'
p1221
aS'lard'
p1222
aS'larimichthys crocea'
p1223
aS'lasalocid sodium'
p1224
aS'lascadoil'
p1225
aS'lavandin (lavandula x intermedia) oil varieties'
p1226
aS'lead'
p1227
aS'lead'
p1228
aS'lead'
p1229
aS'lead chromate'
p1230
aS'lead chromate'
p1231
aS'lead oxide'
p1232
aS'lead oxide'
p1233
aS'lead oxide'
p1234
aS'lead tetraoxide'
p1235
aS'lead tetroxide'
p1236
aS'leafy greens'
p1237
aS'leather-hydrolyzed protein'
p1238
aS'leaves from cistus'
p1239
aS'leaves from indigofera plants'
p1240
aS'"leaves from non-authentic botanical origin (rhus coriaria l.'
p1241
aS' cistus spp.'
p1242
aS' or rubus spp.)"'
p1243
aS'leaves from non-authentic plants'
p1244
aS'leaves from plumbago plants'
p1245
aS'leaves from sumac'
p1246
aS'leguminous plants'
p1247
aS'lemon juice'
p1248
aS'lemon oil'
p1249
aS'lemon oil'
p1250
aS'"lemon oil'
p1251
aS' rectified ho oil (cinnamomum spp.)'
p1252
aS' acetylated ho oil'
p1253
aS' or bitter orange oil (citrus aurantium subsp. aurantium)"'
p1254
aS'lemon sole [microstomus kitt]'
p1255
aS'lemon yellow 60 (tartrazine)'
p1256
aS'leucine'
p1257
aS'lime oil'
p1258
aS'lime oil residue'
p1259
aS'limestone'
p1260
aS'limonene and (+)-carvone'
p1261
aS'limonene and touches of alkyl phthalides'
p1262
aS'linalol and linalyl acetate'
p1263
aS'linalol and trace amounts of certain pyrazines'
p1264
aS'"linalol'
p1265
aS' plus trace amounts of methyl heptenone'
p1266
aS' methyl heptenol'
p1267
aS' 3-octanol'
p1268
aS' and para-methyl acetophenone"'
p1269
aS'linalool (synthetic or from non-authentic botanical source)'
p1270
aS'linalool from non-authentic source'
p1271
aS'linalyl aceate esters (synthetic or from non-authentic botanical source)'
p1272
aS'"linalyl acetate'
p1273
aS' 1'
p1274
aS'8-cineole'
p1275
aS' and alpha-terpinyl acetate"'
p1276
aS'linoleic acid'
p1277
aS'linseed oil'
p1278
aS'lipase-catalyzed interesterified lard'
p1279
aS'liquid sugar candy'
p1280
aS'listeria'
p1281
aS'lithium'
p1282
aS'locust bean gum'
p1283
aS'logwood particles'
p1284
aS'long grain rice'
p1285
aS'low grade cooking oil'
p1286
aS'low grade ground beef'
p1287
aS'low quality quality local wine'
p1288
aS'low-grade of molasses combined with glucose syrup'
p1289
aS'low-grade sugar combined with glucose powder'
p1290
aS'low-quality garlic oil combined with diallyl sulfide compounds'
p1291
aS'low-quality onion oil combined with sulfur compounds'
p1292
aS'lower cost beef'
p1293
aS'lower cost meats'
p1294
aS'lower quality oils'
p1295
aS'lubricating oil contaminted with ortho-cresyl phophate'
p1296
aS'lumpfish roe'
p1297
aS'lupine'
p1298
aS'lutjanidae and serranidae and unidentified taxa'
p1299
aS'lycopene'
p1300
aS'lye'
p1301
aS'lysine'
p1302
aS'lysozyme'
p1303
aS'machine oil'
p1304
aS'mackerel'
p1305
aS'magnesium aspartate'
p1306
aS'mahi'
p1307
aS'maize'
p1308
aS'maize'
p1309
aS'maize oil'
p1310
aS'maize starch'
p1311
aS'mako'
p1312
aS'mako shark'
p1313
aS'malabar snapper'
p1314
aS'malachite green'
p1315
aS'malachite green'
p1316
aS'malchite green'
p1317
aS'maleic anhydride'
p1318
aS'malic acid'
p1319
aS'malt'
p1320
aS'maltodextrin'
p1321
aS'maltodextrins'
p1322
aS'maltol'
p1323
aS'maltose'
p1324
aS'mammalian protein'
p1325
aS'mandarin juice'
p1326
aS'mandarin juice'
p1327
aS'manganese'
p1328
aS'mango juice from non-authentic botanical origin'
p1329
aS'maple flavoring'
p1330
aS'margarine'
p1331
aS'marigold (calendula officinalis) flowers'
p1332
aS'marigold flower extract (tagetes erecta)'
p1333
aS'martius yellow color'
p1334
aS'mash potato'
p1335
aS'meat from non-authentic species'
p1336
aS'meat processing waste'
p1337
aS'melamine'
p1338
aS'melamine'
p1339
aS'melamine'
p1340
aS'melamine'
p1341
aS'melamine analogues'
p1342
aS'melamine and related compounds'
p1343
aS'melatonin'
p1344
aS'menthyl salicilate'
p1345
aS'mercury'
p1346
aS'mercury'
p1347
aS'mercury droplets'
p1348
aS'merlot and syrah wine'
p1349
aS'mesophiles'
p1350
aS'metal particles'
p1351
aS'metalaxyl'
p1352
aS'metanil  yellow'
p1353
aS'metanil yellow'
p1354
aS'metanil yellow'
p1355
aS'metanil yellow (color additive)'
p1356
aS'metanil yellow dye'
p1357
aS'metformin'
p1358
aS'methamidophos'
p1359
aS'methanol'
p1360
aS'methanol'
p1361
aS'methanol'
p1362
aS'methionine'
p1363
aS'methyl alcohol'
p1364
aS'methyl alcohol'
p1365
aS'methyl chavicol and linalol'
p1366
aS'methyl isocyanate'
p1367
aS'methyl n-methyl anthranilate'
p1368
aS'methyl p-hydroxybenzoate'
p1369
aS'methyl p-hydroxybenzoate (antimicrobial compound)'
p1370
aS'methyl-p-hydroxybenzoate'
p1371
aS'"methyl-synephrine'
p1372
aS' phenethylamine"'
p1373
aS'methylsulphonylmethane'
p1374
aS'mexican shrimp'
p1375
aS'mezcal of non-authentic age/grade'
p1376
aS'microbiological contamination'
p1377
aS'microcrystalline wax'
p1378
aS'milk'
p1379
aS'milk (bovine)'
p1380
aS'milk (caprine)'
p1381
aS'milk (cow)'
p1382
aS'"milk (fluid'
p1383
aS' cow)"'
p1384
aS'"milk (fluid'
p1385
aS' water buffalo)"'
p1386
aS'milk (non-authentic species)'
p1387
aS'milk (ovine)'
p1388
aS'milk (water buffalo)'
p1389
aS'milk drink'
p1390
aS'milk drink containing melamine'
p1391
aS'milk from non-authentic animal species'
p1392
aS'milk from non-authentic geographic origin'
p1393
aS'milk from non-authentic heat process'
p1394
aS'milk from non-authentic species'
p1395
aS'milk ingredients (cow)'
p1396
aS'milk ingredients (water buffalo)'
p1397
aS"milk low on fat and 'solids not fat' content"
p1398
aS'milk of non-authentic geographic origin'
p1399
aS'milk powder'
p1400
aS'milk powder'
p1401
aS'milk powder and non-potable water'
p1402
aS'milk powders'
p1403
aS'milk proteins'
p1404
aS'milk proteins'
p1405
aS'millet'
p1406
aS'millet seeds'
p1407
aS'mineral oil'
p1408
aS'mineral oil'
p1409
aS'mineral oil'
p1410
aS'mineral oil contaminated with ortho-cresyl-phosphate'
p1411
aS'mineral oil used'
p1412
aS'mineral oils'
p1413
aS'mink'
p1414
aS'misbranded beverages'
p1415
aS'misbranded chicken'
p1416
aS'misgurnus anguillicaudatus'
p1417
aS'mislabeled beef products'
p1418
aS'mislabeled circassian cheese'
p1419
aS'mislabeled extra virgin olive oil'
p1420
aS'mislabeled fresh meat product'
p1421
aS'mislabeled halal beef'
p1422
aS'mislabeled halal product'
p1423
aS'mislabeled ham'
p1424
aS'mislabeled meat'
p1425
aS'mislabeled milk'
p1426
aS'mislabeled pre-packaged foods'
p1427
aS'mislabeled product marked as usda certified ground beef'
p1428
aS'mislabeled sunflower oil'
p1429
aS'mislabelled canned tuna'
p1430
aS'mixing palm oil'
p1431
aS'"mixture of beef-tallow'
p1432
aS' stearine'
p1433
aS' and flavor"'
p1434
aS'"mixture of beet sugar'
p1435
aS' corn sugar'
p1436
aS' monosodium glutamate'
p1437
aS' ascorbic acid'
p1438
aS' potassium sulfate'
p1439
aS' orange pulp wash'
p1440
aS' grapefruit solids'
p1441
aS' and a byproduct from a water distillation system"'
p1442
aS'"mixture of beet sugar'
p1443
aS' pulp wash'
p1444
aS' amino and citric acids'
p1445
aS' and natamycin"'
p1446
aS'mixture of glucose and fructose'
p1447
aS'mixture of high-fructose corn syrup and water'
p1448
aS'mixture of potato and plastic resin'
p1449
aS'"mixture of soybean oil'
p1450
aS' vegetable oil'
p1451
aS' butter and turmeric"'
p1452
aS'mixture of sugar (cane or corn) and water'
p1453
aS'"mixture of sugar (corn'
p1454
aS' beet'
p1455
aS' or cane) and water"'
p1456
aS'mixture of sugars (c4 derived)'
p1457
aS'"mixture of sunflower oil'
p1458
aS' chlorophyll'
p1459
aS' and beta-carotene"'
p1460
aS'mixture of water and sweeteners'
p1461
aS'"mixture of water'
p1462
aS' sweeteners'
p1463
aS' and preservatives"'
p1464
aS'"mixture of water'
p1465
aS' sweeteners'
p1466
aS' flavorings'
p1467
aS' and colors"'
p1468
aS'molasses'
p1469
aS'molasses'
p1470
aS'mold'
p1471
aS'molybdenum amino acid chelate'
p1472
aS'molybdenum chelate'
p1473
aS'monoethylene glycol'
p1474
aS'monosodium glutamate'
p1475
aS'monoterpene hydrocarbons'
p1476
aS'"monoterpene sulphide fractions synthesised from the hydrogen sulphide treatment of pulegone'
p1477
aS' including p-menthan-8- thiol-3-one"'
p1478
aS'montan acid esters'
p1479
aS'morphine'
p1480
aS'morpholine'
p1481
aS'motor oil'
p1482
aS'mushroom of non-authentic botanical origin (hygrophoropsis aurantiaca)'
p1483
aS'mushroom of non-authentic botanical origin (suillus luteus)'
p1484
aS'must concentration'
p1485
aS'mustard oil'
p1486
aS'mustard seed husk'
p1487
aS'mutton'
p1488
aS'mutton fat'
p1489
aS'mutton of non-authentic geographic origin'
p1490
aS'mutton snapper'
p1491
aS'mycotoxin'
p1492
aS'myrtle leaves'
p1493
aS'n-acetylcysteine'
p1494
aS'n-didesmethyl sibutramine'
p1495
aS'n-homomenthyl salicilate'
p1496
aS'naphthalene'
p1497
aS'naphthol yellow'
p1498
aS'naphtol yellow'
p1499
aS'narrowleaf plantain'
p1500
aS'natamycin'
p1501
aS'natamycin'
p1502
aS'neroli oil (citrus aurantium subsp. aurantium)'
p1503
aS'netuma thalassinus [common name giant whiskered fish or whiskered fish]'
p1504
aS'nickel'
p1505
aS'nickel'
p1506
aS'"nickel'
p1507
aS' cobalt"'
p1508
aS'nicotine'
p1509
aS'nimesulide'
p1510
aS'nitrate'
p1511
aS'nitrate'
p1512
aS'nitrates'
p1513
aS'nitrates'
p1514
aS'nitrite'
p1515
aS'nitrites'
p1516
aS'nitrofuran'
p1517
aS'nitrofurans'
p1518
aS'"nitrogen containing fertilizers (urea'
p1519
aS' ammonia'
p1520
aS' or ammonia salts)"'
p1521
aS'non food-grade ingredient'
p1522
aS'non zam zam water'
p1523
aS'non zamzam water'
p1524
aS'non-authentic aroma compounds'
p1525
aS'non-authentic botanical ingredients with flavanoids'
p1526
aS'non-authentic brand'
p1527
aS'non-authentic brand baby food'
p1528
aS'non-authentic brand coffee'
p1529
aS'non-authentic brand drink mix'
p1530
aS'non-authentic brand of chicken stock'
p1531
aS'non-authentic brand of scotch whiskey'
p1532
aS'non-authentic brand of wine'
p1533
aS'non-authentic citrus oil'
p1534
aS'non-authentic citrus oils'
p1535
aS'non-authentic country origin'
p1536
aS'non-authentic cultivar'
p1537
aS'non-authentic diluent'
p1538
aS'non-authentic essential oil'
p1539
aS'non-authentic fat'
p1540
aS'non-authentic fats'
p1541
aS'non-authentic fats or oils'
p1542
aS'non-authentic fish species'
p1543
aS'"non-authentic fruit juice concentrates such as mulberry'
p1544
aS' fig'
p1545
aS' and carob bean"'
p1546
aS'non-authentic geographic origin'
p1547
aS'"non-authentic herbs (e.g.'
p1548
aS' savory'
p1549
aS' thyme)"'
p1550
aS'non-authentic juice'
p1551
aS'"non-authentic juices (e.g.'
p1552
aS' grapefruit juice)"'
p1553
aS'"non-authentic juices'
p1554
aS' sugars'
p1555
aS' and acids"'
p1556
aS'non-authentic leaves'
p1557
aS'"non-authentic leaves (e.g.'
p1558
aS' sumac'
p1559
aS' cistus)"'
p1560
aS'non-authentic linalool and linalyl acetate'
p1561
aS'non-authentic manufacturer'
p1562
aS'non-authentic material'
p1563
aS'non-authentic materials'
p1564
aS'non-authentic meat species'
p1565
aS'non-authentic milk (bovine)'
p1566
aS'non-authentic milk (cow)'
p1567
aS'"non-authentic milk species (ovine'
p1568
aS' bovine'
p1569
aS' caprine'
p1570
aS' and water buffalo)"'
p1571
aS'non-authentic oil'
p1572
aS'non-authentic oils'
p1573
aS'non-authentic oils and fats'
p1574
aS'non-authentic olive oils'
p1575
aS'non-authentic organic acids'
p1576
aS'non-authentic rice variety'
p1577
aS'non-authentic species'
p1578
aS'non-authentic species dyed with tartrazine and ponceau 2r'
p1579
aS'non-authentic species of fish'
p1580
aS'non-authentic spirit or geographic origin'
p1581
aS'non-authentic spirits'
p1582
aS'non-authentic substances'
p1583
aS'non-authentic sugars'
p1584
aS'non-authentic sweeteners'
p1585
aS'non-authentic varietal'
p1586
aS'non-authentic variety'
p1587
aS'non-authentic vodka'
p1588
aS'non-authentic wine'
p1589
aS'non-dairy fats and oils'
p1590
aS'non-dioxin-like polychlorobifenyls'
p1591
aS'non-edible ghee'
p1592
aS'non-edible oils mixed with butter yellow and artificial flavor'
p1593
aS'non-food grade milk powder'
p1594
aS'non-free range eggs'
p1595
aS'non-halal beef'
p1596
aS'non-hungarian paprika'
p1597
aS'non-italian oils'
p1598
aS'non-kona coffee beans'
p1599
aS'non-kosher certified olive oil'
p1600
aS'non-maryland blue crab'
p1601
aS'non-organic alfalfa'
p1602
aS'non-organic barley'
p1603
aS'non-organic corn'
p1604
aS'non-organic eggs'
p1605
aS'non-organic field beans'
p1606
aS'non-organic field peas'
p1607
aS'non-organic grain'
p1608
aS'non-organic ingredients'
p1609
aS'non-organic linseed'
p1610
aS'non-organic milk'
p1611
aS'non-organic millet'
p1612
aS'non-organic oats'
p1613
aS'non-organic pork'
p1614
aS'non-organic potatoes'
p1615
aS'non-organic rapeseed'
p1616
aS'non-organic sorghum'
p1617
aS'non-organic soybeans'
p1618
aS'non-organic sunflower'
p1619
aS'non-organic wheat'
p1620
aS'non-parmesan cheese'
p1621
aS'non-permitted grape varieties'
p1622
aS'"non-pomegranate anthocyanins from aronia'
p1623
aS' grape skin'
p1624
aS' elderberry'
p1625
aS' black currant'
p1626
aS' or black carrot"'
p1627
aS'non-potable water'
p1628
aS'non-spanish saffron'
p1629
aS'non-stamen crocus parts'
p1630
aS'non-stigma parts of crocus sativus linnaeus'
p1631
aS'non-wild honey'
p1632
aS'non-wuchang rice'
p1633
aS'none'
p1634
aS'nonvolatile residue of grapefruit oil'
p1635
aS'nonvolatile residue of lime oil'
p1636
aS'noodles with less than 50% rice'
p1637
aS'nor-acetildenafil'
p1638
aS'norbixin'
p1639
aS'nordihydroguaiaretic acid'
p1640
aS'norfloxacin'
p1641
aS'not specified'
p1642
aS'novel food'
p1643
aS'"novel food ingredient achyranthes aspera'
p1644
aS' potassium aspartate"'
p1645
aS'novel food ingredient betaine'
p1646
aS'"novel food ingredient betaine'
p1647
aS' tocotrienol'
p1648
aS' methylcobalamin"'
p1649
aS'novel food ingredient creatine derivative'
p1650
aS'novel food ingredient epimedium'
p1651
aS'novel food ingredient ginseng'
p1652
aS'novel food ingredient gymnema syvestre'
p1653
aS'novel food ingredient gynostemma pentaphyllum'
p1654
aS'"novel food ingredient gynostemma pentaphyllum'
p1655
aS' novel food ingredient milk thistle"'
p1656
aS'"novel food ingredient hemidesmus indicus'
p1657
aS' novel food ingredient hydrastis canadensis"'
p1658
aS'novel food ingredient mucuna pruriens'
p1659
aS'"novel food ingredient rhodiola rosea'
p1660
aS' citrulline"'
p1661
aS'"nutmeg terpenes'
p1662
aS' a-pinene'
p1663
aS' limonene'
p1664
aS' and turpentine fractions"'
p1665
aS'nutrients'
p1666
aS'nuts of non-authentic botanical or geographic origin'
p1667
aS'o. vulgaris'
p1668
aS'octopamine hydrochloride'
p1669
aS'octopus vulgaris'
p1670
aS'offal'
p1671
aS'oil'
p1672
aS'oil from non-authentic botanical origin'
p1673
aS'oil from non-authentic botanical origin rich in linoleic acid'
p1674
aS'oil from non-authentic botanical/varietal origin'
p1675
aS'oil from non-authentic origin'
p1676
aS'oil from non-authentic species'
p1677
aS'oil made from animal carcass and fat'
p1678
aS'oil of non-authentic botanical origin'
p1679
aS'oil residues from cold extraction of bergamot'
p1680
aS'oil residues from cold extraction of bergamot combined with synthetic compounds'
p1681
aS'oil-contaminated cocoa beans'
p1682
aS'oil-contaminated pe-hd granules'
p1683
aS'oil-pollution'
p1684
aS'oil-soluble coloring agent'
p1685
aS'oils of non-authentic botanical or geographic origin'
p1686
aS'oils of non-authentic botanical origin'
p1687
aS'oils of non-authentic origin'
p1688
aS'oleic acid'
p1689
aS'olive leaves'
p1690
aS'olive oil'
p1691
aS'olive oil from non-authentic botanical origin'
p1692
aS'olive oil from non-authentic geographic origin'
p1693
aS'olive oil of non-authentic geographic origin'
p1694
aS'olive oil or olive pomace oil'
p1695
aS'olive oil with a high free fatty acid content'
p1696
aS'olive oils of non-authentic botanical or geographic origin'
p1697
aS'olive oils of non-authentic geographic origin'
p1698
aS'olive pomace oil'
p1699
aS'olive pomace oil'
p1700
aS'olives (coquillo cultivar)'
p1701
aS'olives (leccino cultivar)'
p1702
aS'onion dyed with ecosin'
p1703
aS'opah'
p1704
aS'opium'
p1705
aS'opium poppy seeds'
p1706
aS'optical whitener'
p1707
aS'orange juice from non-authentic botanical origin'
p1708
aS'orange juice of non-authentic geographic origin'
p1709
aS'orange pulp wash'
p1710
aS'orange pulpwash'
p1711
aS'orange pulpwash'
p1712
aS'orange pulpwash plus synthetic sugar/acid mixture'
p1713
aS'orange terpenes or sweet orange oil distilled and minor amounts of (+)-nootkatone'
p1714
aS'"orange terpenes'
p1715
aS' lemon terpenes'
p1716
aS' and by-products (e.g.'
p1717
aS' steam-stripped lemon oil)"'
p1718
aS'organic germanium'
p1719
aS'organic/rotten tomatoes'
p1720
aS'orthophenylphenol'
p1721
aS'"other ""non natural"" ingredients"'
p1722
aS'other actea and cimicifuga species'
p1723
aS'other beef types'
p1724
aS'other chemicals'
p1725
aS'"other citrus leaf oils and fractions'
p1726
aS' fatty aldehydes'
p1727
aS' linalyl acetate'
p1728
aS' and orange terpenes"'
p1729
aS'other fish species'
p1730
aS'other game meats'
p1731
aS'other meats'
p1732
aS'other varieties of cheese'
p1733
aS'ouzo'
p1734
aS'overdosage with nicotinic acid'
p1735
aS'ovine'
p1736
aS'ox offal tissue (kidney or liver)'
p1737
aS'oxytocin'
p1738
aS'oxytocin'
p1739
aS'p-aminobenzoic acid'
p1740
aS'"pacific dog snapper (lutjanus\n'
p1741
aS'novemfasciatus)"'
p1742
aS'pacific ocean perch'
p1743
aS'pacific rockfish'
p1744
aS'paddlefish roe'
p1745
aS'paddlefish roe'
p1746
aS'paddy husk'
p1747
aS'palm kernel oil'
p1748
aS'palm kernel oil'
p1749
aS'palm kernel olein'
p1750
aS'palm oil'
p1751
aS'palm oil'
p1752
aS'palm oil (desterolilzed)'
p1753
aS'palmolein'
p1754
aS'pampus punctatissimus'
p1755
aS'panax quinquefolius'
p1756
aS'pangasius'
p1757
aS'"pangasius ""catfish"" (pangasius\n'
p1758
aS'hypophthalmus)"'
p1759
aS'pangasius hypophthalmus'
p1760
aS'pangasius hypophthalmus imports from vietnam'
p1761
aS'papain'
p1762
aS'papaya or other non-authentic plant seeds'
p1763
aS'papaya seed'
p1764
aS'papaya seeds'
p1765
aS'papaya seeds'
p1766
aS'paper'
p1767
aS'paprika extract'
p1768
aS'paprika extract (color)'
p1769
aS'paprika of non-authentic geographic origin'
p1770
aS'para red'
p1771
aS'para-cymene and carvacrol'
p1772
aS'para-cymene and thymol'
p1773
aS'para-toluene sulphonamide'
p1774
aS'paraffin'
p1775
aS'paraffin coating'
p1776
aS'paraffin oil'
p1777
aS'paraffin oil'
p1778
aS'paraffin wax'
p1779
aS'paraffin wax'
p1780
aS'partial invert cane syrup'
p1781
aS'patagonian toothfish'
p1782
aS'patchouli and vetiver distillation residues'
p1783
aS'"patchouli oil'
p1784
aS' vetiver oil'
p1785
aS' and to some extent ginger oil"'
p1786
aS'patent blue v'
p1787
aS'patulin'
p1788
aS'pea'
p1789
aS'pea flour'
p1790
aS'pea protein'
p1791
aS'peach kernels'
p1792
aS'peanut'
p1793
aS'peanut flavor'
p1794
aS'peanut oil'
p1795
aS'peanut powder'
p1796
aS'peanut shell'
p1797
aS'peanut shells'
p1798
aS'peanuts'
p1799
aS'pear juice'
p1800
aS'pear seed'
p1801
aS'pecan nuts'
p1802
aS'penicillin'
p1803
aS'pentapotassium triphosphate'
p1804
aS'perch'
p1805
aS'perchlorate'
p1806
aS'perilla oil'
p1807
aS'peroxide'
p1808
aS'peroxide value'
p1809
aS'"persipan (mixture of bitter almonds'
p1810
aS' apricot'
p1811
aS' or peach kernels)"'
p1812
aS'pesticide'
p1813
aS'pesticide residues'
p1814
aS'pet food'
p1815
aS'petals of carthamus tinctorius l. or calendula officinalis l.'
p1816
aS'petals of cynara cardunculus mixed with glyceroborate and potassium nitrate and color with red dye'
p1817
aS'petitgrain oil terpeneless (citrus aurantium subsp. aurantium)'
p1818
aS'petroleum'
p1819
aS'petroleum hydrocarbons'
p1820
aS'phaseolus vulgaris beans'
p1821
aS'phenolphthalein'
p1822
aS'phenoxyethanol'
p1823
aS'phenylalanine'
p1824
aS'phenylalanine'
p1825
aS'phosphate'
p1826
aS'phosphates'
p1827
aS'phosphoric acid'
p1828
aS'phosphoric acid'
p1829
aS'picric acid color'
p1830
aS'pig fat'
p1831
aS'pig hearts'
p1832
aS'pig offal'
p1833
aS"pig's blood"
p1834
aS'pigments'
p1835
aS'pilocarpine hydrochloride'
p1836
aS'pineapple juice'
p1837
aS'pink ear emperor'
p1838
aS'"piper berries (p. attenuatum'
p1839
aS' p. galeatum)"'
p1840
aS'piperidenafil'
p1841
aS'pistachio'
p1842
aS'plain caramel'
p1843
aS'plant hormone'
p1844
aS'plant material'
p1845
aS'plant parts'
p1846
aS'plant proteins'
p1847
aS'plastic'
p1848
aS'plum fruit (prunus salicina)'
p1849
aS'plum juice'
p1850
aS'plum puree'
p1851
aS'plum sclereids'
p1852
aS'polish ham'
p1853
aS'pollachius virens'
p1854
aS'pollack'
p1855
aS'pollock'
p1856
aS'polybutadiene'
p1857
aS'polychlorobifenyls'
p1858
aS'polycyclic aromatic hydrocarbons'
p1859
aS'polycyclic aromatic hydrocarbons (pahs)'
p1860
aS'polyphosphates'
p1861
aS'polysorbates'
p1862
aS'pomegranate fiber'
p1863
aS'ponceau 4r'
p1864
aS'ponceau 4r / cochineal red a'
p1865
aS'poor quality infant formula'
p1866
aS'poplar tree gum'
p1867
aS'poppy petals'
p1868
aS'porcine'
p1869
aS'porcine bones'
p1870
aS'porcine gristle'
p1871
aS'pork'
p1872
aS'pork'
p1873
aS'pork fat'
p1874
aS'pork from diseased pig'
p1875
aS'pork jowl'
p1876
aS'pork lard'
p1877
aS'pork marinated in beef extract and glazing agent'
p1878
aS'pork meat'
p1879
aS'pork meat'
p1880
aS'portuguese sole [synaptura lusitanica]'
p1881
aS'possible canola oil'
p1882
aS'possible low quality oil'
p1883
aS'possible rapeseed oil'
p1884
aS'potassium aspartate'
p1885
aS'potassium dichromate'
p1886
aS'potassium ferrocyanide'
p1887
aS'potassium hydroxide'
p1888
aS'potassium nitrate'
p1889
aS'potassium sorbate'
p1890
aS'potassium sorbate'
p1891
aS'potato'
p1892
aS'potato flour'
p1893
aS'potato products'
p1894
aS'potato starch'
p1895
aS'potatoes'
p1896
aS'potentially depc'
p1897
aS'potentially natamycin'
p1898
aS'potentially oleum320/idea'
p1899
aS'poultry'
p1900
aS'powdered coloring agent'
p1901
aS'powdered horse dung'
p1902
aS'powdered stone'
p1903
aS'powdered ziziphus nummularia fruit'
p1904
aS'prepared dishes'
p1905
aS'preservatives'
p1906
aS'previously used tea leaves'
p1907
aS'printing chemicals'
p1908
aS'prionace glauca [market names: shark or blue shark]'
p1909
aS'processed animal fat (gutter oil)'
p1910
aS'processed animal proteins'
p1911
aS'progesterone'
p1912
aS'proline'
p1913
aS'propionic acid'
p1914
aS'propolis of non-authentic geographic origin'
p1915
aS'propyl p-hydroxybenzoate'
p1916
aS'propyl p-hydroxybenzoate (antimicrobial compound)'
p1917
aS'propylene glycol'
p1918
aS'prostrate knotweed'
p1919
aS'protein'
p1920
aS'protein powder'
p1921
aS'prussian blue'
p1922
aS'pseudomonas aeruginosa'
p1923
aS'pseudoplastytoma tigrinum [common name caparari]'
p1924
aS'pseudovardenafil'
p1925
aS'puffer fish'
p1926
aS'puffer fish'
p1927
aS'pulverized lime'
p1928
aS'pulverized lime'
p1929
aS'pumpkin puree'
p1930
aS'pure alcohol'
p1931
aS'putna rice'
p1932
aS'pvc'
p1933
aS'quercetin'
p1934
aS'quicksilver'
p1935
aS'quinoline dye'
p1936
aS'quinoline yellow'
p1937
aS'quinoline yellow'
p1938
aS'radioactive oregano'
p1939
aS'radioactive polonium'
p1940
aS'rainbow trout'
p1941
aS'raisin sweetener'
p1942
aS'rajgeera (amaranthus paniculatas)'
p1943
aS'raman'
p1944
aS'rancid cooking oil'
p1945
aS'rape'
p1946
aS'rapeseed oil'
p1947
aS'rat'
p1948
aS'rat meat and fox meat'
p1949
aS'rat poison'
p1950
aS'reconstituted bergamot oil'
p1951
aS'reconstituted milk powder'
p1952
aS'reconstituted orange juice'
p1953
aS'"reconstructions using damascones'
p1954
aS' beta-ionone plus -citronellol and other rose alcohols'
p1955
aS' plus rose steroptenes"'
p1956
aS'recovered oils'
p1957
aS'recycled vegetable oil'
p1958
aS'red 2g'
p1959
aS'red 2g'
p1960
aS'red clay'
p1961
aS'red currant juice'
p1962
aS'red grape juice'
p1963
aS'red lead'
p1964
aS'red oxide paint'
p1965
aS'red pigment'
p1966
aS'red vetch [blanche fleur (v. sativa)]'
p1967
aS'red wine'
p1968
aS'red wine of non-authentic botanical origin'
p1969
aS'red-dyed silk fiber'
p1970
aS'refined beef tallow'
p1971
aS'refined edible oil'
p1972
aS'refined oil'
p1973
aS'refined oil'
p1974
aS'refined oils'
p1975
aS'refined olive oil'
p1976
aS'refined palm stearin'
p1977
aS'refined rice bran oil'
p1978
aS'refined vegetable oil'
p1979
aS'regular fat and calorie cinnamon rolls'
p1980
aS'regular fat and calorie cookies'
p1981
aS'regular fat and calorie doughnuts'
p1982
aS'reinhardtius hippoglossoides'
p1983
aS'rennet whey proteins'
p1984
aS'reprocessed industrial rapeseed oil containing aniline'
p1985
aS'residue level above mrl for copper'
p1986
aS'resin'
p1987
aS'resin'
p1988
aS'rhodamine b'
p1989
aS'rhodamine b'
p1990
aS'rhodamine b'
p1991
aS'rhubarb compote'
p1992
aS'ribe rice'
p1993
aS'rice'
p1994
aS'rice brawn oil'
p1995
aS'rice flour'
p1996
aS'rice flour'
p1997
aS'rice from heilongjiang province'
p1998
aS'rice from hubei province'
p1999
aS'rice from jiangsu province'
p2000
aS'rice from non-authentic botanical origin'
p2001
aS'rice from non-authentic geographic origin'
p2002
aS'rice granules'
p2003
aS'rice husk and castor oil base'
p2004
aS'rice husk and wood fiber'
p2005
aS'rice of non-authentic botanical origin'
p2006
aS'rice powder'
p2007
aS'rice starch'
p2008
aS'rice sugar'
p2009
aS'rice syrup'
p2010
aS'road salt'
p2011
aS'roasted barley'
p2012
aS'roasted beans'
p2013
aS'roasted corn'
p2014
aS'roasted date seeds'
p2015
aS'roasted grains'
p2016
aS'roasted soybeans'
p2017
aS'"roasted'
p2018
aS' ground barley"'
p2019
aS'"roasted'
p2020
aS' ground corn"'
p2021
aS'"roasted'
p2022
aS' ground parchment"'
p2023
aS'robusta coffee'
p2024
aS'rockfish'
p2025
aS'rockfish'
p2026
aS'rocu dye'
p2027
aS'root of non-authentic botanical origin'
p2028
aS'roots of allium porrum l.'
p2029
aS'rose snapper'
p2030
aS'rosin and petroleum'
p2031
aS'rotten fruit'
p2032
aS'rotten pork'
p2033
aS'rotten wheat'
p2034
aS'royal jelly produced from non-authentic saccharide sources'
p2035
aS'rubbing alcohol'
p2036
aS'russian caviar'
p2037
aS'rye flour'
p2038
aS'sablefish (anaplopoma finbira)'
p2039
aS'saccharin'
p2040
aS'saccharin'
p2041
aS'saccharin sodium'
p2042
aS'saccharine'
p2043
aS'"saffron impregnated with syrups'
p2044
aS' glycerin'
p2045
aS' or oils"'
p2046
aS'saffron of non-authentic geographic origin'
p2047
aS'saffron petals'
p2048
aS'"saffron stamens or styles'
p2049
aS' or stigmas from other crocus species such as marigolds"'
p2050
aS'saffron with artificially increased water content'
p2051
aS'saigon beer'
p2052
aS'saithe'
p2053
aS'"saithe (pollachius\n'
p2054
aS'virens)"'
p2055
aS'salicylic acid'
p2056
aS'salicylic acid'
p2057
aS'salicylic acid'
p2058
aS'"salmon (atlantic'
p2059
aS' farm-raised)"'
p2060
aS'salmon (china origin)'
p2061
aS'salmon (chinese)'
p2062
aS'salmon (farm-raised)'
p2063
aS'salmon roe'
p2064
aS'salmonella'
p2065
aS'salmonella'
p2066
aS'salmonella enteriditis'
p2067
aS'salmonella hadar'
p2068
aS'salmonella typhimurium bacteria'
p2069
aS'salt'
p2070
aS'salt'
p2071
aS'salt'
p2072
aS'salted boneless skinless chicken breast contaminated with diesel oil during transport'
p2073
aS'saltpeter'
p2074
aS'samak'
p2075
aS'sand'
p2076
aS'sand'
p2077
aS'sand and talcum'
p2078
aS'sand sole'
p2079
aS'"sand'
p2080
aS' marble'
p2081
aS' or stones"'
p2082
aS'sandalwood dye'
p2083
aS'sandalwood terpenes and sandalwood fragrance chemicals'
p2084
aS'sandlewood dust'
p2085
aS'sardines'
p2086
aS'saw dust'
p2087
aS'sawdust'
p2088
aS'sawdust and jiegeng (platycodon grandiflorum)'
p2089
aS'scallop-flavored seafood nuggets'
p2090
aS'scamp grouper'
p2091
aS'scented and colored resin'
p2092
aS'sciaenidae'
p2093
aS'scomberomorus niphonius'
p2094
aS'sea bass'
p2095
aS'seabream (pagrus major)'
p2096
aS'sedatives'
p2097
aS'seed oil'
p2098
aS'seed oil'
p2099
aS'seed oils'
p2100
aS"seignette's salt"
p2101
aS'selenium'
p2102
aS'semicarbazide'
p2103
aS'semicarbazide'
p2104
aS'"semolina'
p2105
aS' rice flour'
p2106
aS' and sodium bicarbonate"'
p2107
aS'semoline'
p2108
aS'senegalese sole'
p2109
aS'senegalese tonguesole [cynoglossus senegalensis]'
p2110
aS'senna alexandrina mill.'
p2111
aS'serine'
p2112
aS'sesame meal'
p2113
aS'sesame oil'
p2114
aS'sesame oil of non-authentic geographic origin'
p2115
aS'sewage water'
p2116
aS'sharbetti rice'
p2117
aS'sheep meat'
p2118
aS'sheep milk'
p2119
aS'shell eggs (barn raised)'
p2120
aS'shell eggs (caged)'
p2121
aS'shell eggs (conventional)'
p2122
aS'shell eggs of non-authentic geographic origin'
p2123
aS'shigella'
p2124
aS'shiraz wine of non-authentic geographic origin'
p2125
aS'shortfin mako shark'
p2126
aS'shovelnose sturgeon'
p2127
aS'shrimp (chinese)'
p2128
aS'shrimp from thailand'
p2129
aS'"shrimp from thailand'
p2130
aS' malaysia'
p2131
aS' or indonesia"'
p2132
aS'shrimp of non-authentic geographic origin'
p2133
aS'sibutramine'
p2134
aS'sibutramine'
p2135
aS'sibutramine suspected'
p2136
aS'sildenafil'
p2137
aS'sildenafil'
p2138
aS'sildenafil thiono analogue'
p2139
aS'"sildenafil thiono analogues'
p2140
aS' tadalafil"'
p2141
aS'"sildenafil'
p2142
aS' sildenafil thiono analogue"'
p2143
aS'silk snapper'
p2144
aS'silver'
p2145
aS'singhada'
p2146
aS'sinopol (a detergent)'
p2147
aS'skim milk powder (reconstituted)'
p2148
aS'skim milk powder (reconstituted)'
p2149
aS'skimmed milk powder'
p2150
aS'skimmed milk powder'
p2151
aS'skins'
p2152
aS'skipjack'
p2153
aS'slinger seabream'
p2154
aS'smell'
p2155
aS'smoke flavouring'
p2156
aS'smoked hams'
p2157
aS'smoked paprika from non-authentic geographic origin'
p2158
aS'smoked whiting'
p2159
aS'smooth amaranth'
p2160
aS'smuggled beef'
p2161
aS'smuggled beluga caviar'
p2162
aS'smuggled frozen meat'
p2163
aS'snapper'
p2164
aS'snapper'
p2165
aS'soap stone'
p2166
aS'soda'
p2167
aS'soda lye'
p2168
aS'sodium'
p2169
aS'sodium'
p2170
aS'sodium alginate'
p2171
aS'sodium aluminium phosphate'
p2172
aS'sodium azide'
p2173
aS'sodium benzoate'
p2174
aS'sodium benzoate fortified orange pulpwash'
p2175
aS'sodium carbonate'
p2176
aS'sodium carbonates'
p2177
aS'sodium chloride'
p2178
aS'sodium chloride'
p2179
aS'sodium citrate'
p2180
aS'sodium citrate peroxide'
p2181
aS'sodium copper chlorophyllin'
p2182
aS'sodium cyclamate'
p2183
aS'sodium dichromate'
p2184
aS'sodium dodecylbenzene sulfonate'
p2185
aS'sodium erythorbate'
p2186
aS'sodium hydro sulphate'
p2187
aS'sodium hydroxide'
p2188
aS'sodium hydroxide'
p2189
aS'sodium hydroxide'
p2190
aS'sodium metabisulfite'
p2191
aS'sodium metabisulfite'
p2192
aS'sodium methyl p-hydroxybenzoate'
p2193
aS'sodium nitrate'
p2194
aS'sodium nitrite'
p2195
aS'sodium nitrite'
p2196
aS'sodium propyl p-hydroxybenzoate'
p2197
aS'sodium sorbate'
p2198
aS'sodium sulfate'
p2199
aS'sodium tripolyphosphate'
p2200
aS'sodium-based compound'
p2201
aS'sodium-based water retention agent and water'
p2202
aS'soft wheat'
p2203
aS'soil'
p2204
aS'sole'
p2205
aS'solution'
p2206
aS'solution of d-fructose and d-glucose'
p2207
aS'some powders'
p2208
aS'some unknown chemicals'
p2209
aS'sorbic acid'
p2210
aS'sorbic acid'
p2211
aS'sorbitan tristearate'
p2212
aS'sorbitol'
p2213
aS'sorbitol'
p2214
aS'"sorbitol-containing fruit juices (e.g.'
p2215
aS' apple'
p2216
aS' pear'
p2217
aS' cherry'
p2218
aS' or aronia"'
p2219
aS'soy'
p2220
aS'soy'
p2221
aS'soy flour'
p2222
aS'soy milk'
p2223
aS'soy oil'
p2224
aS'soy oil'
p2225
aS'soy protein'
p2226
aS'soy protein'
p2227
aS'soy sauce derived from acid hydrolyzed vegetable protein'
p2228
aS'soya'
p2229
aS'soya oil'
p2230
aS'soybean'
p2231
aS'soybean'
p2232
aS'soybean flour'
p2233
aS'soybean meal'
p2234
aS'soybean oil'
p2235
aS'soybean oil'
p2236
aS'soybean oil (desterolilzed)'
p2237
aS'soybean powder'
p2238
aS'soybean protein'
p2239
aS'soybeans'
p2240
aS'soymilk'
p2241
aS'spanish extra virgin olive oil'
p2242
aS'spanish olive oil'
p2243
aS'spent black pepper meal'
p2244
aS'spice powder from non-authentic botanical/varietal origin'
p2245
aS'spices'
p2246
aS'spike lavender oil (lavandula latifolia)'
p2247
aS'spinach absolute (spinacia oleracea)'
p2248
aS'spiny dogfish'
p2249
aS'spoiled pork'
p2250
aS'squalus acanthias [market names: shark'
p2251
aS'squid (dosidicus gigas)'
p2252
aS'squid (eledone cirrhosa)'
p2253
aS'squirefish (porgy)'
p2254
aS'stachytarpheta jocaicensis'
p2255
aS'stamens of carnation species'
p2256
aS'stanozolol'
p2257
aS'staphylococcus'
p2258
aS'staphylococcus aureus'
p2259
aS'star anise oil (illicium verum)'
p2260
aS'star-studded grouper'
p2261
aS'starch'
p2262
aS'starch'
p2263
aS'stearic acid'
p2264
aS'stem and chaff of black pepper'
p2265
aS'stigma from non-authentic species of crocus'
p2266
aS'stigma of corn silk'
p2267
aS'stigmas from non-authentic crocus botanical origin (crocus vernus l.; crocus especiousus l.)'
p2268
aS'stinking chamomile'
p2269
aS'stolen baby food'
p2270
aS'stolen baby formula'
p2271
aS'stolen california walnuts'
p2272
aS'stolen infant formula'
p2273
aS'stolen liquor'
p2274
aS'stolen maple syrup'
p2275
aS'stolen muenster cheese'
p2276
aS'stolen strawberries'
p2277
aS'stolen wine'
p2278
aS'stone powder'
p2279
aS'stone powder and chalk'
p2280
aS'straw'
p2281
aS'strawberry juice'
p2282
aS'striped catfish [pangasianodon hypophthalmus]'
p2283
aS'strontium'
p2284
aS'strychnine'
p2285
aS'sturgeon caviar'
p2286
aS'styrene'
p2287
aS'sub-standard rice'
p2288
aS'substandard mawa'
p2289
aS'substandard oil'
p2290
aS'substandard oil'
p2291
aS'substandard sugar'
p2292
aS'substandard water'
p2293
aS'succinic acid'
p2294
aS'sucralose'
p2295
aS'sucrose'
p2296
aS'sucrose'
p2297
aS'sucrose solution'
p2298
aS'sucrose syrup'
p2299
aS'sudan 1'
p2300
aS'sudan 1 and 4 dyes'
p2301
aS'sudan dyes'
p2302
aS'sudan dyes'
p2303
aS'sudan i'
p2304
aS'sudan i dye'
p2305
aS'"sudan i'
p2306
aS' ii'
p2307
aS' iii'
p2308
aS' or iv dyes"'
p2309
aS'sudan ii dye'
p2310
aS'sudan iii dye'
p2311
aS'sudan iv'
p2312
aS'sudan iv dye'
p2313
aS'sudan red'
p2314
aS'sudan red dyes'
p2315
aS'sudan red i dyes'
p2316
aS'sugar'
p2317
aS'sugar'
p2318
aS'sugar and sodium sulfate'
p2319
aS'sugar and water'
p2320
aS'sugar of non-authentic geographic origin'
p2321
aS'sugar solution'
p2322
aS'sugar syrup'
p2323
aS'sugar syrup'
p2324
aS'sugar syrups'
p2325
aS'"sugar syrups from corn'
p2326
aS' sugar cane'
p2327
aS' sugar beet'
p2328
aS' and maple syrup"'
p2329
aS'sugars'
p2330
aS'sugars (corn- or cane-derived)'
p2331
aS'sulfadimethoxine'
p2332
aS'sulfite'
p2333
aS'"sulfite'
p2334
aS' milk ingredient'
p2335
aS' mustard"'
p2336
aS'"sulfite'
p2337
aS' soya"'
p2338
aS'sulfites'
p2339
aS'sulfur dioxide'
p2340
aS'sulfur dioxide'
p2341
aS'sulfuric acid'
p2342
aS'sulphuric acid'
p2343
aS'sultana grapes'
p2344
aS'sumac'
p2345
aS'sunflower oil'
p2346
aS'sunflower oil'
p2347
aS'sunflower oil (desteroled)'
p2348
aS'sunflower oil (desterolilzed)'
p2349
aS'sunset yellow'
p2350
aS'sunset yellow dye'
p2351
aS'sunset yellow fcf'
p2352
aS'supermarket honey'
p2353
aS'surimi-based artificial crab meat'
p2354
aS'sutchi'
p2355
aS'swai'
p2356
aS'swai fish'
p2357
aS'sweet corn flavor'
p2358
aS'sweet orange oil'
p2359
aS'sweet orange oil'
p2360
aS'"sweet orange oil (citrus sinensis) and orange terpenes'
p2361
aS' plus trace amounts of character compounds"'
p2362
aS'sweet orange oil brazil'
p2363
aS'sweet orange oil with added (-)-limonene'
p2364
aS'sweet potato'
p2365
aS'sweetener neotame'
p2366
aS'sweetlips'
p2367
aS'swill or gutter oil (refined oil from recycled food and livestock waste)'
p2368
aS'swill-cooked dirty oil'
p2369
aS'synephrine'
p2370
aS'synthetic allyl isothiocyanate'
p2371
aS'"synthetic benzaldehde'
p2372
aS' eugenol'
p2373
aS' and cinnamic aldehyde"'
p2374
aS'synthetic benzaldehyde'
p2375
aS'synthetic butter additives'
p2376
aS'"synthetic cinnamic aldehyde'
p2377
aS' methyl cinnamic aldehyde'
p2378
aS' and coumarin"'
p2379
aS'synthetic color'
p2380
aS'synthetic color additives'
p2381
aS'synthetic colors'
p2382
aS'synthetic decanal'
p2383
aS'synthetic dyes'
p2384
aS'synthetic e-2-hexanal'
p2385
aS'synthetic e-2-hexenol'
p2386
aS'synthetic estragole'
p2387
aS'synthetic ethyl butyrate'
p2388
aS'synthetic eugenol'
p2389
aS'synthetic gamma- or delta-decalactone'
p2390
aS'synthetic honey composed of water and non-authentic sweeteners'
p2391
aS'synthetic linalool'
p2392
aS'synthetic linalool and linalyl acetate'
p2393
aS'synthetic linalyl acetate'
p2394
aS'synthetic malic acid with beet sugar'
p2395
aS'"synthetic mawa (refined oil'
p2396
aS' wheat flour'
p2397
aS' semolina'
p2398
aS' milk powder'
p2399
aS' potato'
p2400
aS' sweet potato'
p2401
aS' ground rice and chestnut powder)"'
p2402
aS'synthetic milk'
p2403
aS'synthetic milk'
p2404
aS'"synthetic milk (caustic soda'
p2405
aS' oil'
p2406
aS' salt'
p2407
aS' sugar'
p2408
aS' urea'
p2409
aS' detegent'
p2410
aS' water)"'
p2411
aS'"synthetic milk (urea'
p2412
aS' detergent'
p2413
aS' refined oil'
p2414
aS' caustic soda and white paint)"'
p2415
aS'"synthetic milk comprised of water'
p2416
aS' urea'
p2417
aS' soda'
p2418
aS' sucrose'
p2419
aS' vegetable oils'
p2420
aS' skim milk powder'
p2421
aS' detergent"'
p2422
aS'synthetic or semi-synthetic (e)-alpha-ionone'
p2423
aS'synthetic or semi-synthetic (e)-beta-ionone'
p2424
aS'synthetic or semi-synthetic alpha-ionone'
p2425
aS'synthetic or semi-synthetic benzaldehyde'
p2426
aS'synthetic or semi-synthetic beta-ionone'
p2427
aS'synthetic or semi-synthetic cinnamaldehyde'
p2428
aS'synthetic or semi-synthetic linalool'
p2429
aS'synthetic or semi-synthetic methyl salicylate'
p2430
aS'synthetic or semi-synthetic or p-hydroxybenzaldehyde'
p2431
aS'synthetic or semi-synthetic raspberry ketone'
p2432
aS'synthetic or semi-synthetic vanillin'
p2433
aS'synthetic phenylalanine'
p2434
aS'synthetic red dye azorubine (e122)'
p2435
aS'synthetic resin'
p2436
aS'synthetic safranal'
p2437
aS'synthetic tyrosine'
p2438
aS'synthetic vanillin'
p2439
aS'synthetically derived acetic acid'
p2440
aS'syrup'
p2441
aS'tadalafil'
p2442
aS'talc'
p2443
aS'tallow'
p2444
aS'tamarind seed'
p2445
aS'tamarind seeds'
p2446
aS'tangelo juice'
p2447
aS'tangerine or mandarin juice'
p2448
aS'tapioca starch'
p2449
aS'tara gum'
p2450
aS'tartrazine'
p2451
aS'tartrazine'
p2452
aS'taurine'
p2453
aS'taurine'
p2454
aS'tea'
p2455
aS'tea leaves of non-authentic botanical origin'
p2456
aS'tea of non-authentic botanical origin'
p2457
aS'tea of non-authentic geographic origin'
p2458
aS'tea powder'
p2459
aS'technical grade anethol'
p2460
aS'tequila (derived from non-agave fermentable sugars)'
p2461
aS'tequila from non-authentic geographic origin'
p2462
aS'tequila of non-authentic age (grade)'
p2463
aS'"terpene hydrocarbon mixtures containing a-pinene and d-3-carene'
p2464
aS' also juniper branch oil and second grade oils from spoiled juniper berries"'
p2465
aS'terpenes'
p2466
aS'terpenes from sweet orange'
p2467
aS'terpinen-4-ol and alpha- and gamma-terpinenes'
p2468
aS'tertiary butylhydroquinone'
p2469
aS'tetrachloroethene'
p2470
aS'tetrachloroethylene'
p2471
aS'tetracycline'
p2472
aS'tetrahydrocannabinol'
p2473
aS'tetramine'
p2474
aS'tetrasodium pyrophosphate'
p2475
aS'the cold chain -'
p2476
aS'the prince alomo-bitters'
p2477
aS'the sum'
p2478
aS'thiourea'
p2479
aS'threads of gelatin'
p2480
aS'threonine'
p2481
aS'thresher'
p2482
aS'thujone'
p2483
aS'tilapia'
p2484
aS'tilapia'
p2485
aS'tilapia (chinese)'
p2486
aS'tilapia (oreochromis niloticus)'
p2487
aS'tilapia (oreochromis sp.)'
p2488
aS'tilapia or white bass'
p2489
aS'tin'
p2490
aS'"tin'
p2491
aS' cobalt'
p2492
aS' germanium'
p2493
aS' vanadium"'
p2494
aS'"tin'
p2495
aS' nickel"'
p2496
aS'tinopal'
p2497
aS'titanium dioxide'
p2498
aS'tobacco'
p2499
aS'tocotrienol'
p2500
aS'toluene'
p2501
aS'tomato skin'
p2502
aS'tomatoes that did not meet quality specifications'
p2503
aS'total color'
p2504
aS'total phosphates'
p2505
aS'toxic substances'
p2506
aS'tra fish'
p2507
aS'trans fatty acids'
p2508
aS'transshipped butter'
p2509
aS'tri-ortho cresyl phosphate'
p2510
aS'trichloroethene'
p2511
aS'triclosan'
p2512
aS'triclosan (antimicrobial compound)'
p2513
aS'triiodothyronine'
p2514
aS'triphosphate'
p2515
aS'triuret'
p2516
aS'tropeolin color'
p2517
aS'tuna'
p2518
aS'turkey'
p2519
aS'turkey meat'
p2520
aS'turkish hazelnut oil'
p2521
aS'turkish honey'
p2522
aS'turmeric'
p2523
aS'turmeric'
p2524
aS'turmeric powder'
p2525
aS'turpentine'
p2526
aS'turpentine oil'
p2527
aS'twigs'
p2528
aS'tyrosine'
p2529
aS'u.s. long grain rice'
p2530
aS'uht milk'
p2531
aS'unauthorized grapes'
p2532
aS'undeclared animal and plant proteins'
p2533
aS'undeclared meat species'
p2534
aS'undeclared meats'
p2535
aS'unidentified color'
p2536
aS'unidentified meat'
p2537
aS'united states beef'
p2538
aS'unknown'
p2539
aS'unknown fake fish'
p2540
aS'unknown milk source'
p2541
aS'unlicensed beverages'
p2542
aS'unpasteurized cheese'
p2543
aS'unsafe ingredient'
p2544
aS'unspecified chemicals'
p2545
aS'urea'
p2546
aS'urea'
p2547
aS'urea (synthetic origin)'
p2548
aS'urea and vegatable oil'
p2549
aS'ureaform'
p2550
aS'used and discarded oil'
p2551
aS'valine'
p2552
aS'vanadium'
p2553
aS'"vanadium'
p2554
aS' boron citrate'
p2555
aS' molybdenum amino acid chelate'
p2556
aS' magnesium chelate'
p2557
aS' selenium chelate'
p2558
aS' copper chelate'
p2559
aS' manganese chelate"'
p2560
aS'"vanadium'
p2561
aS' boron citrate'
p2562
aS' selenium chelate'
p2563
aS' copper chelate'
p2564
aS' manganese chelate'
p2565
aS' chromium chelate"'
p2566
aS'"vanadium'
p2567
aS' selenium amino acid chelate"'
p2568
aS'vanadyl sulphate'
p2569
aS'vanaspati'
p2570
aS'vanaspati (hydrogenated vegetable fat)'
p2571
aS'vanillic alcohol'
p2572
aS'vanillin'
p2573
aS'"vanillin'
p2574
aS' benzyl benzoate'
p2575
aS' ethyl and benzyl cinnamates'
p2576
aS' and benzoic acid to enhance odor (or to pass off cheaper &ldquo;sumatra&rdquo; grades as &ldquo;siam&rdquo;)"'
p2577
aS'vardenafil'
p2578
aS'various fish species from the western part of pacific ocean'
p2579
aS'varnish'
p2580
aS'vegetable carbon'
p2581
aS'vegetable fat'
p2582
aS'vegetable filler'
p2583
aS'vegetable ghee'
p2584
aS'vegetable margarine'
p2585
aS'vegetable material'
p2586
aS'vegetable oil'
p2587
aS'vegetable oil'
p2588
aS'vegetable oil from non-authentic botanical origin'
p2589
aS'vegetable oils'
p2590
aS'vegetable oils'
p2591
aS'vegetable oils of non-authentic botanical or geographic origin'
p2592
aS'vegetable oils on non-authentic botanical origin'
p2593
aS'vegetable oils rich in linoleic acid'
p2594
aS'"vegetable oils'
p2595
aS' hercolyn d"'
p2596
aS'vegetale oil'
p2597
aS'vehicle anti-freeze'
p2598
aS'venetian red'
p2599
aS'venison'
p2600
aS'vermilion'
p2601
aS'veterinary products'
p2602
aS'vibrio cholerae'
p2603
aS'vietnam-sourced seafood'
p2604
aS'vietnam-sourced shrimp'
p2605
aS'vietnamese catfish (swai)'
p2606
aS'vietnamese honey'
p2607
aS'vietnamese rice'
p2608
aS'vinegar from non-authentic fermentable sugar source'
p2609
aS'vinegar made from reconstituted dry grapes'
p2610
aS'vinpocetine'
p2611
aS'"vinpocetine'
p2612
aS' citrulline malate"'
p2613
aS'virgin olive oil'
p2614
aS'virgin olive oil and other vegetable oils'
p2615
aS'virgin olive oil from non-authentic geographic origin'
p2616
aS'vitamin a'
p2617
aS'vitamin b1'
p2618
aS'"vitamin b12'
p2619
aS' caffeine"'
p2620
aS'vitamin b6'
p2621
aS'vitamin d'
p2622
aS'vitamin e'
p2623
aS'vitamins'
p2624
aS'volatile organic compounds'
p2625
aS'walnut oil'
p2626
aS'washing powder'
p2627
aS'waste or recycled oil'
p2628
aS'waste water'
p2629
aS'water'
p2630
aS'water'
p2631
aS'water (use of water retention agents or overglazing)'
p2632
aS'water buffalo'
p2633
aS'water buffalo meat'
p2634
aS'"water'
p2635
aS' cane sugar'
p2636
aS' and maple flavor"'
p2637
aS'water-retaining agent'
p2638
aS'water-soluble corn starch'
p2639
aS'weakfish (cynoscion albus)'
p2640
aS'wheat'
p2641
aS'wheat flour'
p2642
aS'wheat flour'
p2643
aS'wheat protein'
p2644
aS'whey'
p2645
aS'whey'
p2646
aS'whey protein'
p2647
aS'whey proteins'
p2648
aS'white mica'
p2649
aS'white pepper'
p2650
aS'whiteleg shrimp'
p2651
aS'whiting'
p2652
aS'whitting'
p2653
aS'wine from grapes of non-authentic botanical origin'
p2654
aS'wine from non-authentic brand'
p2655
aS'wine from the languedoc-roussillon'
p2656
aS'wreck fish (polyprion americanus) or nile perch (lates niloticus)'
p2657
aS'xylene'
p2658
aS'yeast powder'
p2659
aS'yellow clay'
p2660
aS'yellow colored rice bran'
p2661
aS'yellow dye'
p2662
aS'yellow dye'
p2663
aS'yellow mouth gropuper'
p2664
aS'yellow sesame oil'
p2665
aS'yellow tail snapper'
p2666
aS'yellowedge grouper'
p2667
aS'yellowtail amberjack'
p2668
aS'yellowtail fish'
p2669
aS'yohimbine'
p2670
aS'"yohimbine'
p2671
aS' synephrine"'
p2672
aS'zebra'
p2673
aS'zinc'
p2674
aS'zinc amino acid chelate'
p2675
aS'"zinc amino acid chelate'
p2676
aS' selenium amino acid chelate'
p2677
aS' calcium amino acid chelate'
p2678
aS' magnesium amino acid chelate"'
p2679
aS'zinc arginine chelate'
p2680
aS'rasff'
p2681
aS''
p2682
ag2682
ag2682
ag2682
ag2682
ag2682
ag2682
ag2682
ag2682
ag2682
ag2682
ag2682
ag2682
ag2682
a.