ccollections
defaultdict
p0
(c__builtin__
set
p1
tp2
Rp3
S'Savage'
p4
g1
((lp5
S''
p6
atp7
Rp8
sS'Sunland'
p9
g1
((lp10
S'Park'
p11
atp12
Rp13
sS'Conneaut'
p14
g1
((lp15
g6
atp16
Rp17
sS'Corbin'
p18
g1
((lp19
g6
atp20
Rp21
sS'Pryor'
p22
g1
((lp23
S'Creek'
p24
atp25
Rp26
sS'Eatonton'
p27
g1
((lp28
g6
atp29
Rp30
sS'Burnet'
p31
g1
((lp32
g6
atp33
Rp34
sS'Olmsted'
p35
g1
((lp36
S'Falls'
p37
atp38
Rp39
sS'Sugar'
p40
g1
((lp41
S'Grove'
p42
aS'Land'
p43
aS'Hill'
p44
atp45
Rp46
sS'DeBary'
p47
g1
((lp48
g6
atp49
Rp50
sS'Toledo'
p51
g1
((lp52
g6
atp53
Rp54
sS'Nampa'
p55
g1
((lp56
g6
atp57
Rp58
sS'Pinson'
p59
g1
((lp60
g6
atp61
Rp62
sS'Pomona'
p63
g1
((lp64
g6
atp65
Rp66
sS'Elizabethton'
p67
g1
((lp68
g6
atp69
Rp70
sS'Hoover'
p71
g1
((lp72
g6
atp73
Rp74
sS'Oakdale'
p75
g1
((lp76
g6
atp77
Rp78
sS'Hondo'
p79
g1
((lp80
g6
atp81
Rp82
sS'Jennings'
p83
g1
((lp84
g6
atp85
Rp86
sS'Scottsdale'
p87
g1
((lp88
g6
atp89
Rp90
sS'Western'
p91
g1
((lp92
S'Springs'
p93
atp94
Rp95
sS'Apache'
p96
g1
((lp97
S'Junction'
p98
atp99
Rp100
sS'Upland'
p101
g1
((lp102
g6
atp103
Rp104
sS'Winooski'
p105
g1
((lp106
g6
atp107
Rp108
sS'Riverbank'
p109
g1
((lp110
g6
atp111
Rp112
sS'Jeffersontown'
p113
g1
((lp114
g6
atp115
Rp116
sS'League'
p117
g1
((lp118
S'City'
p119
atp120
Rp121
sS'Waterloo'
p122
g1
((lp123
g6
atp124
Rp125
sS'Montrose'
p126
g1
((lp127
g6
atp128
Rp129
sS'Brea'
p130
g1
((lp131
g6
atp132
Rp133
sS'Whitefish'
p134
g1
((lp135
g6
aS'Bay'
p136
atp137
Rp138
sS'Tallassee'
p139
g1
((lp140
g6
atp141
Rp142
sS'Poplar'
p143
g1
((lp144
S'Bluff'
p145
atp146
Rp147
sS'Plattsburgh'
p148
g1
((lp149
g6
atp150
Rp151
sS'Torrington'
p152
g1
((lp153
g6
atp154
Rp155
sS'Redding'
p156
g1
((lp157
g6
atp158
Rp159
sS'Muskego'
p160
g1
((lp161
g6
atp162
Rp163
sS'Chino'
p164
g1
((lp165
g6
aS'Valley'
p166
aS'Hills'
p167
atp168
Rp169
sS'Mentor'
p170
g1
((lp171
g6
atp172
Rp173
sS'Exeter'
p174
g1
((lp175
g6
atp176
Rp177
sS'Goshen'
p178
g1
((lp179
g6
atp180
Rp181
sS'Saco'
p182
g1
((lp183
g6
atp184
Rp185
sS'Mascotte'
p186
g1
((lp187
g6
atp188
Rp189
sS'Hercules'
p190
g1
((lp191
g6
atp192
Rp193
sS'Frisco'
p194
g1
((lp195
g6
atp196
Rp197
sS'Moorpark'
p198
g1
((lp199
g6
atp200
Rp201
sS'Onalaska'
p202
g1
((lp203
g6
atp204
Rp205
sS'Windsor'
p206
g1
((lp207
g6
aS'Heights'
p208
atp209
Rp210
sS'Sandy'
p211
g1
((lp212
g6
aS'Springs'
p213
atp214
Rp215
sS'Rainsville'
p216
g1
((lp217
g6
atp218
Rp219
sS'Elburn'
p220
g1
((lp221
g6
atp222
Rp223
sS'Waco'
p224
g1
((lp225
g6
atp226
Rp227
sS'Jeffersonville'
p228
g1
((lp229
g6
atp230
Rp231
sS'Kaplan'
p232
g1
((lp233
g6
atp234
Rp235
sS'Opelousas'
p236
g1
((lp237
g6
atp238
Rp239
sS'Ludington'
p240
g1
((lp241
g6
atp242
Rp243
sS'Pampa'
p244
g1
((lp245
g6
atp246
Rp247
sS'Whiteland'
p248
g1
((lp249
g6
atp250
Rp251
sS'Minnetonka'
p252
g1
((lp253
g6
atp254
Rp255
sS'Sawmills'
p256
g1
((lp257
g6
atp258
Rp259
sS'Lamar'
p260
g1
((lp261
g6
atp262
Rp263
sS'Trotwood'
p264
g1
((lp265
g6
atp266
Rp267
sS'Brooksville'
p268
g1
((lp269
g6
atp270
Rp271
sS'Renton'
p272
g1
((lp273
g6
atp274
Rp275
sS'Sherman'
p276
g1
((lp277
g6
atp278
Rp279
sS'Meadows'
p280
g1
((lp281
S'Place'
p282
atp283
Rp284
sS'Hailey'
p285
g1
((lp286
g6
atp287
Rp288
sS'Boise'
p289
g1
((lp290
S'City'
p291
atp292
Rp293
sS'Rockland'
p294
g1
((lp295
g6
atp296
Rp297
sS'Matawan'
p298
g1
((lp299
g6
atp300
Rp301
sS'Hamilton'
p302
g1
((lp303
g6
atp304
Rp305
sS'Hammonton'
p306
g1
((lp307
g6
atp308
Rp309
sS'Niagara'
p310
g1
((lp311
S'Falls'
p312
atp313
Rp314
sS'Fridley'
p315
g1
((lp316
g6
atp317
Rp318
sS'Alcoa'
p319
g1
((lp320
g6
atp321
Rp322
sS'Sioux'
p323
g1
((lp324
S'City'
p325
aS'Center'
p326
aS'Falls'
p327
atp328
Rp329
sS'Gadsden'
p330
g1
((lp331
g6
atp332
Rp333
sS'Scarsdale'
p334
g1
((lp335
g6
atp336
Rp337
sS'Clarion'
p338
g1
((lp339
g6
atp340
Rp341
sS'Burbank'
p342
g1
((lp343
g6
atp344
Rp345
sS'Stuttgart'
p346
g1
((lp347
g6
atp348
Rp349
sS'Algonquin'
p350
g1
((lp351
g6
atp352
Rp353
sS'Lynwood'
p354
g1
((lp355
g6
atp356
Rp357
sS'Fitchburg'
p358
g1
((lp359
g6
atp360
Rp361
sS'Woodinville'
p362
g1
((lp363
g6
atp364
Rp365
sS'Merrill'
p366
g1
((lp367
g6
atp368
Rp369
sS'Bluffdale'
p370
g1
((lp371
g6
atp372
Rp373
sS'Devils'
p374
g1
((lp375
S'Lake'
p376
atp377
Rp378
sS'Queen'
p379
g1
((lp380
S'Creek'
p381
atp382
Rp383
sS'Blanchard'
p384
g1
((lp385
g6
atp386
Rp387
sS'Talladega'
p388
g1
((lp389
g6
atp390
Rp391
sS'Boiling'
p392
g1
((lp393
S'Spring'
p394
atp395
Rp396
sS'Lockport'
p397
g1
((lp398
g6
atp399
Rp400
sS'Greendale'
p401
g1
((lp402
g6
atp403
Rp404
sS'Scottsboro'
p405
g1
((lp406
g6
atp407
Rp408
sS'Attalla'
p409
g1
((lp410
g6
atp411
Rp412
sS'Russellville'
p413
g1
((lp414
g6
atp415
Rp416
sS'Newnan'
p417
g1
((lp418
g6
atp419
Rp420
sS'Canonsburg'
p421
g1
((lp422
g6
atp423
Rp424
sS'Quincy'
p425
g1
((lp426
g6
atp427
Rp428
sS'Waterbury'
p429
g1
((lp430
g6
atp431
Rp432
sS'St.'
p433
g1
((lp434
S'Pete'
p435
aS'Johns'
p436
aS'Albans'
p437
aS'Martinville'
p438
aS'Peters'
p439
aS'Bernard'
p440
aS'Joseph'
p441
aS'Petersburg'
p442
aS'John'
p443
aS'Anthony'
p444
aS'Gabriel'
p445
aS'Matthews'
p446
aS'Francis'
p447
aS'Clairsville'
p448
aS'Louis'
p449
aS'Michael'
p450
aS'Helens'
p451
aS'Augustine'
p452
aS'Ann'
p453
aS'Charles'
p454
aS'George'
p455
aS'Helena'
p456
aS'Cloud'
p457
aS'Paul'
p458
aS'Peter'
p459
aS'Marys'
p460
aS'Clair'
p461
atp462
Rp463
sS'Three'
p464
g1
((lp465
S'Rivers'
p466
atp467
Rp468
sS'Warrensville'
p469
g1
((lp470
S'Heights'
p471
atp472
Rp473
sS'Molalla'
p474
g1
((lp475
g6
atp476
Rp477
sS'Pasadena'
p478
g1
((lp479
g6
atp480
Rp481
sS'Woodway'
p482
g1
((lp483
g6
atp484
Rp485
sS'Star'
p486
g1
((lp487
g6
atp488
Rp489
sS'Danbury'
p490
g1
((lp491
g6
atp492
Rp493
sS'Seymour'
p494
g1
((lp495
g6
atp496
Rp497
sS'Hyattsville'
p498
g1
((lp499
g6
atp500
Rp501
sS'Canby'
p502
g1
((lp503
g6
atp504
Rp505
sS'Okeechobee'
p506
g1
((lp507
g6
atp508
Rp509
sS'Northwood'
p510
g1
((lp511
g6
atp512
Rp513
sS'Childersburg'
p514
g1
((lp515
g6
atp516
Rp517
sS'Vernon'
p518
g1
((lp519
g6
aS'Hills'
p520
atp521
Rp522
sS'Poughkeepsie'
p523
g1
((lp524
g6
atp525
Rp526
sS'Corning'
p527
g1
((lp528
g6
atp529
Rp530
sS'Akron'
p531
g1
((lp532
g6
atp533
Rp534
sS'Cobleskill'
p535
g1
((lp536
g6
atp537
Rp538
sS'Maywood'
p539
g1
((lp540
g6
atp541
Rp542
sS'Brighton'
p543
g1
((lp544
g6
atp545
Rp546
sS'Wauchula'
p547
g1
((lp548
g6
atp549
Rp550
sS'Thurmont'
p551
g1
((lp552
g6
atp553
Rp554
sS'Colonie'
p555
g1
((lp556
g6
atp557
Rp558
sS'Edmonds'
p559
g1
((lp560
g6
atp561
Rp562
sS'Morrow'
p563
g1
((lp564
g6
atp565
Rp566
sS'Quakertown'
p567
g1
((lp568
g6
atp569
Rp570
sS'Crowley'
p571
g1
((lp572
g6
atp573
Rp574
sS'Clarksburg'
p575
g1
((lp576
g6
atp577
Rp578
sS'Statesboro'
p579
g1
((lp580
g6
atp581
Rp582
sS'Hatboro'
p583
g1
((lp584
g6
atp585
Rp586
sS'Mokena'
p587
g1
((lp588
g6
atp589
Rp590
sS'Totowa'
p591
g1
((lp592
g6
atp593
Rp594
sS'Fraser'
p595
g1
((lp596
g6
atp597
Rp598
sS'Crown'
p599
g1
((lp600
S'Point'
p601
atp602
Rp603
sS'Beebe'
p604
g1
((lp605
g6
atp606
Rp607
sS'Travelers'
p608
g1
((lp609
S'Rest'
p610
atp611
Rp612
sS'Centerville'
p613
g1
((lp614
g6
atp615
Rp616
sS'Montvale'
p617
g1
((lp618
g6
atp619
Rp620
sS'Brownfield'
p621
g1
((lp622
g6
atp623
Rp624
sS'Le'
p625
g1
((lp626
S'Mars'
p627
atp628
Rp629
sS'Kingsford'
p630
g1
((lp631
g6
atp632
Rp633
sS'La'
p634
g1
((lp635
S'Vista'
p636
aS'Vergne'
p637
aS'Junta'
p638
aS'Grange'
p639
aS'Verne'
p640
aS'Ca\xa4ada'
p641
aS'Joya'
p642
aS'Quinta'
p643
aS'Feria'
p644
aS'Plata'
p645
aS'Puente'
p646
aS'Palma'
p647
aS'Mesa'
p648
aS'Follette'
p649
aS'Porte'
p650
aS'Verkin'
p651
aS'Grande'
p652
aS'Mirada'
p653
aS'Habra'
p654
aS'Marque'
p655
aS'Crescent'
p656
aS'Crosse'
p657
atp658
Rp659
sS'Jesup'
p660
g1
((lp661
g6
atp662
Rp663
sS'Hurricane'
p664
g1
((lp665
g6
atp666
Rp667
sS'Fairburn'
p668
g1
((lp669
g6
atp670
Rp671
sS'Spotswood'
p672
g1
((lp673
g6
atp674
Rp675
sS'Mandan'
p676
g1
((lp677
g6
atp678
Rp679
sS'Loudon'
p680
g1
((lp681
g6
atp682
Rp683
sS'Ocoee'
p684
g1
((lp685
g6
atp686
Rp687
sS'Eagle'
p688
g1
((lp689
g6
aS'Mountain'
p690
aS'Point'
p691
aS'Pass'
p692
atp693
Rp694
sS'Laurinburg'
p695
g1
((lp696
g6
atp697
Rp698
sS'Phoenix'
p699
g1
((lp700
g6
atp701
Rp702
sS'Countryside'
p703
g1
((lp704
g6
atp705
Rp706
sS'Hampstead'
p707
g1
((lp708
g6
atp709
Rp710
sS'Irving'
p711
g1
((lp712
g6
atp713
Rp714
sS'Gardner'
p715
g1
((lp716
g6
atp717
Rp718
sS'Edmond'
p719
g1
((lp720
g6
atp721
Rp722
sS'Folcroft'
p723
g1
((lp724
g6
atp725
Rp726
sS'Hartford'
p727
g1
((lp728
g6
aS'City'
p729
atp730
Rp731
sS'Falcon'
p732
g1
((lp733
S'Heights'
p734
atp735
Rp736
sS'Mullins'
p737
g1
((lp738
g6
atp739
Rp740
sS'Monee'
p741
g1
((lp742
g6
atp743
Rp744
sS'Coppell'
p745
g1
((lp746
g6
atp747
Rp748
sS'Melvindale'
p749
g1
((lp750
g6
atp751
Rp752
sS'Lucas'
p753
g1
((lp754
g6
atp755
Rp756
sS'Chesapeake'
p757
g1
((lp758
g6
atp759
Rp760
sS'Cicero'
p761
g1
((lp762
g6
atp763
Rp764
sS'Barnesville'
p765
g1
((lp766
g6
atp767
Rp768
sS'Ocean'
p769
g1
((lp770
S'Shores'
p771
aS'Springs'
p772
aS'City'
p773
atp774
Rp775
sS'Duluth'
p776
g1
((lp777
g6
atp778
Rp779
sS'Connellsville'
p780
g1
((lp781
g6
atp782
Rp783
sS'Howell'
p784
g1
((lp785
g6
atp786
Rp787
sS'Norco'
p788
g1
((lp789
g6
atp790
Rp791
sS'Vernal'
p792
g1
((lp793
g6
atp794
Rp795
sS'Anoka'
p796
g1
((lp797
g6
atp798
Rp799
sS'Farrell'
p800
g1
((lp801
g6
atp802
Rp803
sS'Westbury'
p804
g1
((lp805
g6
atp806
Rp807
sS'Rocklin'
p808
g1
((lp809
g6
atp810
Rp811
sS'Wapato'
p812
g1
((lp813
g6
atp814
Rp815
sS'Salinas'
p816
g1
((lp817
g6
atp818
Rp819
sS'Cheverly'
p820
g1
((lp821
g6
atp822
Rp823
sS'Wickliffe'
p824
g1
((lp825
g6
atp826
Rp827
sS'Zimmerman'
p828
g1
((lp829
g6
atp830
Rp831
sS'Midvale'
p832
g1
((lp833
g6
atp834
Rp835
sS'Kenilworth'
p836
g1
((lp837
g6
atp838
Rp839
sS'Monroe'
p840
g1
((lp841
g6
atp842
Rp843
sS'Pinehurst'
p844
g1
((lp845
g6
atp846
Rp847
sS'Blue'
p848
g1
((lp849
S'Springs'
p850
aS'Ash'
p851
aS'Island'
p852
atp853
Rp854
sS'Ishpeming'
p855
g1
((lp856
g6
atp857
Rp858
sS'Arlington'
p859
g1
((lp860
g6
aS'Heights'
p861
atp862
Rp863
sS'Fowler'
p864
g1
((lp865
g6
atp866
Rp867
sS'Brook'
p868
g1
((lp869
S'Park'
p870
atp871
Rp872
sS'Poteau'
p873
g1
((lp874
g6
atp875
Rp876
sS'Montgomery'
p877
g1
((lp878
g6
atp879
Rp880
sS'Newark'
p881
g1
((lp882
g6
atp883
Rp884
sS'Sammamish'
p885
g1
((lp886
g6
atp887
Rp888
sS'Allegan'
p889
g1
((lp890
g6
atp891
Rp892
sS'Charlottesville'
p893
g1
((lp894
g6
atp895
Rp896
sS'Nazareth'
p897
g1
((lp898
g6
atp899
Rp900
sS'Bellville'
p901
g1
((lp902
g6
atp903
Rp904
sS'Tipp'
p905
g1
((lp906
S'City'
p907
atp908
Rp909
sS'Biddeford'
p910
g1
((lp911
g6
atp912
Rp913
sS'Addison'
p914
g1
((lp915
g6
atp916
Rp917
sS'Lodi'
p918
g1
((lp919
g6
atp920
Rp921
sS'Conover'
p922
g1
((lp923
g6
atp924
Rp925
sS'Lemont'
p926
g1
((lp927
g6
atp928
Rp929
sS'McMinnville'
p930
g1
((lp931
g6
atp932
Rp933
sS'Kearny'
p934
g1
((lp935
g6
atp936
Rp937
sS'Smiths'
p938
g1
((lp939
S'Station'
p940
atp941
Rp942
sS'Sugarcreek'
p943
g1
((lp944
g6
atp945
Rp946
sS'Blaine'
p947
g1
((lp948
g6
atp949
Rp950
sS'Hopewell'
p951
g1
((lp952
g6
atp953
Rp954
sS'Jonesboro'
p955
g1
((lp956
g6
atp957
Rp958
sS'Vandalia'
p959
g1
((lp960
g6
atp961
Rp962
sS'Fairview'
p963
g1
((lp964
g6
aS'Park'
p965
aS'Heights'
p966
atp967
Rp968
sS'Vallejo'
p969
g1
((lp970
g6
atp971
Rp972
sS'Hickory'
p973
g1
((lp974
g6
aS'Hills'
p975
atp976
Rp977
sS'Mobile'
p978
g1
((lp979
g6
atp980
Rp981
sS'Perryville'
p982
g1
((lp983
g6
atp984
Rp985
sS'Omak'
p986
g1
((lp987
g6
atp988
Rp989
sS'Moncks'
p990
g1
((lp991
S'Corner'
p992
atp993
Rp994
sS'Columbiana'
p995
g1
((lp996
g6
atp997
Rp998
sS'Mexia'
p999
g1
((lp1000
g6
atp1001
Rp1002
sS'Dumfries'
p1003
g1
((lp1004
g6
atp1005
Rp1006
sS'Indio'
p1007
g1
((lp1008
g6
atp1009
Rp1010
sS'Liberal'
p1011
g1
((lp1012
g6
atp1013
Rp1014
sS'Cairo'
p1015
g1
((lp1016
g6
atp1017
Rp1018
sS'Pharr'
p1019
g1
((lp1020
g6
atp1021
Rp1022
sS'Goose'
p1023
g1
((lp1024
S'Creek'
p1025
atp1026
Rp1027
sS'Milan'
p1028
g1
((lp1029
g6
atp1030
Rp1031
sS'Walden'
p1032
g1
((lp1033
g6
atp1034
Rp1035
sS'Munford'
p1036
g1
((lp1037
g6
atp1038
Rp1039
sS'Gretna'
p1040
g1
((lp1041
g6
atp1042
Rp1043
sS'Bergenfield'
p1044
g1
((lp1045
g6
atp1046
Rp1047
sS'Groton'
p1048
g1
((lp1049
g6
atp1050
Rp1051
sS'Flushing'
p1052
g1
((lp1053
g6
atp1054
Rp1055
sS'Frankfort'
p1056
g1
((lp1057
g6
atp1058
Rp1059
sS'Duncan'
p1060
g1
((lp1061
g6
atp1062
Rp1063
sS'Sparks'
p1064
g1
((lp1065
g6
atp1066
Rp1067
sS'Sunnyside'
p1068
g1
((lp1069
g6
atp1070
Rp1071
sS'Granbury'
p1072
g1
((lp1073
g6
atp1074
Rp1075
sS'Johnsburg'
p1076
g1
((lp1077
g6
atp1078
Rp1079
sS'Kirtland'
p1080
g1
((lp1081
g6
atp1082
Rp1083
sS'Evanston'
p1084
g1
((lp1085
g6
atp1086
Rp1087
sS'Tiburon'
p1088
g1
((lp1089
g6
atp1090
Rp1091
sS'Damascus'
p1092
g1
((lp1093
g6
atp1094
Rp1095
sS'Rathdrum'
p1096
g1
((lp1097
g6
atp1098
Rp1099
sS'Hesperia'
p1100
g1
((lp1101
g6
atp1102
Rp1103
sS'Jamestown'
p1104
g1
((lp1105
g6
atp1106
Rp1107
sS'Corpus'
p1108
g1
((lp1109
S'Christi'
p1110
atp1111
Rp1112
sS'Lansdale'
p1113
g1
((lp1114
g6
atp1115
Rp1116
sS'Azusa'
p1117
g1
((lp1118
g6
atp1119
Rp1120
sS'Nacogdoches'
p1121
g1
((lp1122
g6
atp1123
Rp1124
sS'Aspen'
p1125
g1
((lp1126
g6
atp1127
Rp1128
sS'Airmont'
p1129
g1
((lp1130
g6
atp1131
Rp1132
sS'Huber'
p1133
g1
((lp1134
S'Heights'
p1135
atp1136
Rp1137
sS'Warr'
p1138
g1
((lp1139
S'Acres'
p1140
atp1141
Rp1142
sS'Northport'
p1143
g1
((lp1144
g6
atp1145
Rp1146
sS'Dardanelle'
p1147
g1
((lp1148
g6
atp1149
Rp1150
sS'Libertyville'
p1151
g1
((lp1152
g6
atp1153
Rp1154
sS'Oberlin'
p1155
g1
((lp1156
g6
atp1157
Rp1158
sS'Chatham'
p1159
g1
((lp1160
g6
atp1161
Rp1162
sS'Napoleon'
p1163
g1
((lp1164
g6
atp1165
Rp1166
sS'Godfrey'
p1167
g1
((lp1168
g6
atp1169
Rp1170
sS'Emeryville'
p1171
g1
((lp1172
g6
atp1173
Rp1174
sS'Dalhart'
p1175
g1
((lp1176
g6
atp1177
Rp1178
sS'University'
p1179
g1
((lp1180
S'City'
p1181
aS'Park'
p1182
aS'Place'
p1183
aS'Heights'
p1184
atp1185
Rp1186
sS'Calera'
p1187
g1
((lp1188
g6
atp1189
Rp1190
sS'Royse'
p1191
g1
((lp1192
S'City'
p1193
atp1194
Rp1195
sS'Watertown'
p1196
g1
((lp1197
g6
atp1198
Rp1199
sS'Swarthmore'
p1200
g1
((lp1201
g6
atp1202
Rp1203
sS'Brenham'
p1204
g1
((lp1205
g6
atp1206
Rp1207
sS'Bellefontaine'
p1208
g1
((lp1209
g6
aS'Neighbors'
p1210
atp1211
Rp1212
sS'Hollister'
p1213
g1
((lp1214
g6
atp1215
Rp1216
sS'Horseheads'
p1217
g1
((lp1218
g6
atp1219
Rp1220
sS'Newburyport'
p1221
g1
((lp1222
g6
atp1223
Rp1224
sS'Olyphant'
p1225
g1
((lp1226
g6
atp1227
Rp1228
sS'Campbellsville'
p1229
g1
((lp1230
g6
atp1231
Rp1232
sS'Cambridge'
p1233
g1
((lp1234
g6
atp1235
Rp1236
sS'Clinton'
p1237
g1
((lp1238
g6
atp1239
Rp1240
sS'Rosenberg'
p1241
g1
((lp1242
g6
atp1243
Rp1244
sS'Branson'
p1245
g1
((lp1246
g6
atp1247
Rp1248
sS'National'
p1249
g1
((lp1250
S'City'
p1251
atp1252
Rp1253
sS'Valparaiso'
p1254
g1
((lp1255
g6
atp1256
Rp1257
sS'Morris'
p1258
g1
((lp1259
g6
aS'Plains'
p1260
atp1261
Rp1262
sS'Horn'
p1263
g1
((lp1264
S'Lake'
p1265
atp1266
Rp1267
sS'Owensboro'
p1268
g1
((lp1269
g6
atp1270
Rp1271
sS'Sunrise'
p1272
g1
((lp1273
g6
atp1274
Rp1275
sS'Vidor'
p1276
g1
((lp1277
g6
atp1278
Rp1279
sS'Bellmawr'
p1280
g1
((lp1281
g6
atp1282
Rp1283
sS'Marinette'
p1284
g1
((lp1285
g6
atp1286
Rp1287
sS'Trinidad'
p1288
g1
((lp1289
g6
atp1290
Rp1291
sS'Cooper'
p1292
g1
((lp1293
S'City'
p1294
atp1295
Rp1296
sS'Holbrook'
p1297
g1
((lp1298
g6
atp1299
Rp1300
sS'Cherokee'
p1301
g1
((lp1302
g6
aS'Village'
p1303
atp1304
Rp1305
sS'Walterboro'
p1306
g1
((lp1307
g6
atp1308
Rp1309
sS'Bayville'
p1310
g1
((lp1311
g6
atp1312
Rp1313
sS'Waite'
p1314
g1
((lp1315
S'Park'
p1316
atp1317
Rp1318
sS'Dacula'
p1319
g1
((lp1320
g6
atp1321
Rp1322
sS'Montevallo'
p1323
g1
((lp1324
g6
atp1325
Rp1326
sS'Waterford'
p1327
g1
((lp1328
g6
atp1329
Rp1330
sS'Algona'
p1331
g1
((lp1332
g6
atp1333
Rp1334
sS'Gibraltar'
p1335
g1
((lp1336
g6
atp1337
Rp1338
sS'Deerfield'
p1339
g1
((lp1340
g6
aS'Beach'
p1341
atp1342
Rp1343
sS'Shamokin'
p1344
g1
((lp1345
g6
atp1346
Rp1347
sS'Murrysville'
p1348
g1
((lp1349
g6
atp1350
Rp1351
sS'Medina'
p1352
g1
((lp1353
g6
atp1354
Rp1355
sS'Shreveport'
p1356
g1
((lp1357
g6
atp1358
Rp1359
sS'Beech'
p1360
g1
((lp1361
S'Grove'
p1362
atp1363
Rp1364
sS'Dumont'
p1365
g1
((lp1366
g6
atp1367
Rp1368
sS'Mesa'
p1369
g1
((lp1370
g6
atp1371
Rp1372
sS'Huntingburg'
p1373
g1
((lp1374
g6
atp1375
Rp1376
sS'Desert'
p1377
g1
((lp1378
S'Hot'
p1379
atp1380
Rp1381
sS'Alexander'
p1382
g1
((lp1383
S'City'
p1384
atp1385
Rp1386
sS'Wynne'
p1387
g1
((lp1388
g6
atp1389
Rp1390
sS'Markham'
p1391
g1
((lp1392
g6
atp1393
Rp1394
sS'Rockville'
p1395
g1
((lp1396
g6
aS'Centre'
p1397
atp1398
Rp1399
sS'Farr'
p1400
g1
((lp1401
S'West'
p1402
atp1403
Rp1404
sS'Middlesborough'
p1405
g1
((lp1406
g6
atp1407
Rp1408
sS'Carencro'
p1409
g1
((lp1410
g6
atp1411
Rp1412
sS'Brandon'
p1413
g1
((lp1414
g6
atp1415
Rp1416
sS'Boonton'
p1417
g1
((lp1418
g6
atp1419
Rp1420
sS'Summit'
p1421
g1
((lp1422
g6
atp1423
Rp1424
sS'Sunset'
p1425
g1
((lp1426
g6
aS'Hills'
p1427
atp1428
Rp1429
sS'Malden'
p1430
g1
((lp1431
g6
atp1432
Rp1433
sS'Charleston'
p1434
g1
((lp1435
g6
atp1436
Rp1437
sS'Muskogee'
p1438
g1
((lp1439
g6
atp1440
Rp1441
sS'Owosso'
p1442
g1
((lp1443
g6
atp1444
Rp1445
sS'Channahon'
p1446
g1
((lp1447
g6
atp1448
Rp1449
sS'Craig'
p1450
g1
((lp1451
g6
atp1452
Rp1453
sS'Calistoga'
p1454
g1
((lp1455
g6
atp1456
Rp1457
sS'Carroll'
p1458
g1
((lp1459
g6
atp1460
Rp1461
sS'Winnfield'
p1462
g1
((lp1463
g6
atp1464
Rp1465
sS'Millington'
p1466
g1
((lp1467
g6
atp1468
Rp1469
sS'Hillside'
p1470
g1
((lp1471
g6
atp1472
Rp1473
sS'Sea'
p1474
g1
((lp1475
S'Cliff'
p1476
atp1477
Rp1478
sS'Angleton'
p1479
g1
((lp1480
g6
atp1481
Rp1482
sS'Downers'
p1483
g1
((lp1484
S'Grove'
p1485
atp1486
Rp1487
sS'Americus'
p1488
g1
((lp1489
g6
atp1490
Rp1491
sS'Chicago'
p1492
g1
((lp1493
g6
aS'Ridge'
p1494
aS'Heights'
p1495
atp1496
Rp1497
sS'Farmington'
p1498
g1
((lp1499
g6
aS'Hills'
p1500
atp1501
Rp1502
sS'Sumter'
p1503
g1
((lp1504
g6
atp1505
Rp1506
sS'Downey'
p1507
g1
((lp1508
g6
atp1509
Rp1510
sS'Holly'
p1511
g1
((lp1512
g6
aS'Springs'
p1513
aS'Hill'
p1514
atp1515
Rp1516
sS'Saranac'
p1517
g1
((lp1518
S'Lake'
p1519
atp1520
Rp1521
sS'Celina'
p1522
g1
((lp1523
g6
atp1524
Rp1525
sS'Oshkosh'
p1526
g1
((lp1527
g6
atp1528
Rp1529
sS'Strasburg'
p1530
g1
((lp1531
g6
atp1532
Rp1533
sS'Marengo'
p1534
g1
((lp1535
g6
atp1536
Rp1537
sS'Lincolnshire'
p1538
g1
((lp1539
g6
atp1540
Rp1541
sS'Unionville'
p1542
g1
((lp1543
g6
atp1544
Rp1545
sS'Berne'
p1546
g1
((lp1547
g6
atp1548
Rp1549
sS'Linwood'
p1550
g1
((lp1551
g6
atp1552
Rp1553
sS'Amory'
p1554
g1
((lp1555
g6
atp1556
Rp1557
sS'Albert'
p1558
g1
((lp1559
S'Lea'
p1560
atp1561
Rp1562
sS'Inver'
p1563
g1
((lp1564
S'Grove'
p1565
atp1566
Rp1567
sS'Dunlap'
p1568
g1
((lp1569
g6
atp1570
Rp1571
sS'Cochran'
p1572
g1
((lp1573
g6
atp1574
Rp1575
sS'Kittanning'
p1576
g1
((lp1577
g6
atp1578
Rp1579
sS'Brevard'
p1580
g1
((lp1581
g6
atp1582
Rp1583
sS'Caledonia'
p1584
g1
((lp1585
g6
atp1586
Rp1587
sS'Dothan'
p1588
g1
((lp1589
g6
atp1590
Rp1591
sS'Mathis'
p1592
g1
((lp1593
g6
atp1594
Rp1595
sS'Bakersfield'
p1596
g1
((lp1597
g6
atp1598
Rp1599
sS'Waldwick'
p1600
g1
((lp1601
g6
atp1602
Rp1603
sS'Zeeland'
p1604
g1
((lp1605
g6
atp1606
Rp1607
sS'Dansville'
p1608
g1
((lp1609
g6
atp1610
Rp1611
sS'Ogden'
p1612
g1
((lp1613
g6
atp1614
Rp1615
sS'Benton'
p1616
g1
((lp1617
g6
aS'Harbor'
p1618
atp1619
Rp1620
sS'Nanticoke'
p1621
g1
((lp1622
g6
atp1623
Rp1624
sS'Minnetrista'
p1625
g1
((lp1626
g6
atp1627
Rp1628
sS'Cutler'
p1629
g1
((lp1630
S'Bay'
p1631
atp1632
Rp1633
sS'Galion'
p1634
g1
((lp1635
g6
atp1636
Rp1637
sS'Ayden'
p1638
g1
((lp1639
g6
atp1640
Rp1641
sS'Leland'
p1642
g1
((lp1643
g6
atp1644
Rp1645
sS'Brecksville'
p1646
g1
((lp1647
g6
atp1648
Rp1649
sS'Sanibel'
p1650
g1
((lp1651
g6
atp1652
Rp1653
sS'Galveston'
p1654
g1
((lp1655
g6
atp1656
Rp1657
sS'Trenton'
p1658
g1
((lp1659
g6
atp1660
Rp1661
sS'Glendive'
p1662
g1
((lp1663
g6
atp1664
Rp1665
sS'Bisbee'
p1666
g1
((lp1667
g6
atp1668
Rp1669
sS'Ardmore'
p1670
g1
((lp1671
g6
atp1672
Rp1673
sS'Elberton'
p1674
g1
((lp1675
g6
atp1676
Rp1677
sS'Kingston'
p1678
g1
((lp1679
g6
atp1680
Rp1681
sS'Bound'
p1682
g1
((lp1683
S'Brook'
p1684
atp1685
Rp1686
sS'Vinita'
p1687
g1
((lp1688
g6
atp1689
Rp1690
sS'Lauderhill'
p1691
g1
((lp1692
g6
atp1693
Rp1694
sS'Mayville'
p1695
g1
((lp1696
g6
atp1697
Rp1698
sS'Garfield'
p1699
g1
((lp1700
g6
aS'Heights'
p1701
atp1702
Rp1703
sS'Encinitas'
p1704
g1
((lp1705
g6
atp1706
Rp1707
sS'Levelland'
p1708
g1
((lp1709
g6
atp1710
Rp1711
sS'Crossett'
p1712
g1
((lp1713
g6
atp1714
Rp1715
sS'Anaconda'
p1716
g1
((lp1717
g6
atp1718
Rp1719
sS'Rupert'
p1720
g1
((lp1721
g6
atp1722
Rp1723
sS'Duncanville'
p1724
g1
((lp1725
g6
atp1726
Rp1727
sS'Loomis'
p1728
g1
((lp1729
g6
atp1730
Rp1731
sS'Chehalis'
p1732
g1
((lp1733
g6
atp1734
Rp1735
sS'Union'
p1736
g1
((lp1737
g6
aS'City'
p1738
aS'Grove'
p1739
aS'Gap'
p1740
aS'Springs'
p1741
aS'Beach'
p1742
atp1743
Rp1744
sS'Cortez'
p1745
g1
((lp1746
g6
atp1747
Rp1748
sS'Ogdensburg'
p1749
g1
((lp1750
g6
atp1751
Rp1752
sS'McDonough'
p1753
g1
((lp1754
g6
atp1755
Rp1756
sS'Miamisburg'
p1757
g1
((lp1758
g6
atp1759
Rp1760
sS'Steubenville'
p1761
g1
((lp1762
g6
atp1763
Rp1764
sS'Paradise'
p1765
g1
((lp1766
g6
aS'Valley'
p1767
atp1768
Rp1769
sS'Eastlake'
p1770
g1
((lp1771
g6
atp1772
Rp1773
sS'Powell'
p1774
g1
((lp1775
g6
atp1776
Rp1777
sS'Anna'
p1778
g1
((lp1779
g6
atp1780
Rp1781
sS'Toccoa'
p1782
g1
((lp1783
g6
atp1784
Rp1785
sS'Harrisonburg'
p1786
g1
((lp1787
g6
atp1788
Rp1789
sS'Clarendon'
p1790
g1
((lp1791
S'Hills'
p1792
atp1793
Rp1794
sS'Big'
p1795
g1
((lp1796
S'Spring'
p1797
aS'Stone'
p1798
aS'Lake'
p1799
aS'Bear'
p1800
aS'Rapids'
p1801
atp1802
Rp1803
sS'Sinton'
p1804
g1
((lp1805
g6
atp1806
Rp1807
sS'Gig'
p1808
g1
((lp1809
S'Harbor'
p1810
atp1811
Rp1812
sS'Scottsburg'
p1813
g1
((lp1814
g6
atp1815
Rp1816
sS'Lewisville'
p1817
g1
((lp1818
g6
atp1819
Rp1820
sS'Amherst'
p1821
g1
((lp1822
g6
atp1823
Rp1824
sS'Machesney'
p1825
g1
((lp1826
S'Park'
p1827
atp1828
Rp1829
sS'DeSoto'
p1830
g1
((lp1831
g6
atp1832
Rp1833
sS'Winnemucca'
p1834
g1
((lp1835
g6
atp1836
Rp1837
sS'Whittier'
p1838
g1
((lp1839
g6
atp1840
Rp1841
sS'Ferguson'
p1842
g1
((lp1843
g6
atp1844
Rp1845
sS'Pembroke'
p1846
g1
((lp1847
S'Pines'
p1848
aS'Park'
p1849
atp1850
Rp1851
sS'Suamico'
p1852
g1
((lp1853
g6
atp1854
Rp1855
sS'Antigo'
p1856
g1
((lp1857
g6
atp1858
Rp1859
sS'Millville'
p1860
g1
((lp1861
g6
atp1862
Rp1863
sS'Oneida'
p1864
g1
((lp1865
g6
atp1866
Rp1867
sS'Chickasaw'
p1868
g1
((lp1869
g6
atp1870
Rp1871
sS'Bexley'
p1872
g1
((lp1873
g6
atp1874
Rp1875
sS'Carpentersville'
p1876
g1
((lp1877
g6
atp1878
Rp1879
sS'Yelm'
p1880
g1
((lp1881
g6
atp1882
Rp1883
sS'Gloucester'
p1884
g1
((lp1885
g6
aS'City'
p1886
atp1887
Rp1888
sS'Mattoon'
p1889
g1
((lp1890
g6
atp1891
Rp1892
sS'Fife'
p1893
g1
((lp1894
g6
atp1895
Rp1896
sS'Moore'
p1897
g1
((lp1898
g6
atp1899
Rp1900
sS'Corry'
p1901
g1
((lp1902
g6
atp1903
Rp1904
sS'Washington'
p1905
g1
((lp1906
g6
aS'Park'
p1907
aS'Court'
p1908
aS'Terrace'
p1909
atp1910
Rp1911
sS'Andover'
p1912
g1
((lp1913
g6
atp1914
Rp1915
sS'LaSalle'
p1916
g1
((lp1917
g6
atp1918
Rp1919
sS'Rio'
p1920
g1
((lp1921
S'Bravo'
p1922
aS'Vista'
p1923
aS'Rancho'
p1924
aS'Grande'
p1925
atp1926
Rp1927
sS'Tyler'
p1928
g1
((lp1929
g6
atp1930
Rp1931
sS'Jupiter'
p1932
g1
((lp1933
g6
atp1934
Rp1935
sS'Swartz'
p1936
g1
((lp1937
S'Creek'
p1938
atp1939
Rp1940
sS'Rockport'
p1941
g1
((lp1942
g6
atp1943
Rp1944
sS'Knightdale'
p1945
g1
((lp1946
g6
atp1947
Rp1948
sS'Grovetown'
p1949
g1
((lp1950
g6
atp1951
Rp1952
sS'Urbandale'
p1953
g1
((lp1954
g6
atp1955
Rp1956
sS'Sanger'
p1957
g1
((lp1958
g6
atp1959
Rp1960
sS'Indianola'
p1961
g1
((lp1962
g6
atp1963
Rp1964
sS'Glen'
p1965
g1
((lp1966
S'Ellyn'
p1967
aS'Rock'
p1968
aS'Ridge'
p1969
aS'Cove'
p1970
aS'Carbon'
p1971
atp1972
Rp1973
sS'Watauga'
p1974
g1
((lp1975
g6
atp1976
Rp1977
sS'Jackson'
p1978
g1
((lp1979
g6
atp1980
Rp1981
sS'District'
p1982
g1
((lp1983
S'Heights'
p1984
atp1985
Rp1986
sS'Belle'
p1987
g1
((lp1988
S'Fourche'
p1989
aS'Isle'
p1990
aS'Glade'
p1991
aS'Plaine'
p1992
atp1993
Rp1994
sS'Crawfordsville'
p1995
g1
((lp1996
g6
atp1997
Rp1998
sS'Bella'
p1999
g1
((lp2000
S'Vista'
p2001
atp2002
Rp2003
sS'Thief'
p2004
g1
((lp2005
S'River'
p2006
atp2007
Rp2008
sS'Adelanto'
p2009
g1
((lp2010
g6
atp2011
Rp2012
sS'Foster'
p2013
g1
((lp2014
S'City'
p2015
atp2016
Rp2017
sS'Butler'
p2018
g1
((lp2019
g6
atp2020
Rp2021
sS'McPherson'
p2022
g1
((lp2023
g6
atp2024
Rp2025
sS'Manorhaven'
p2026
g1
((lp2027
g6
atp2028
Rp2029
sS'Watervliet'
p2030
g1
((lp2031
g6
atp2032
Rp2033
sS'Skiatook'
p2034
g1
((lp2035
g6
atp2036
Rp2037
sS'Tehachapi'
p2038
g1
((lp2039
g6
atp2040
Rp2041
sS'Vinton'
p2042
g1
((lp2043
g6
atp2044
Rp2045
sS'Dardenne'
p2046
g1
((lp2047
S'Prairie'
p2048
atp2049
Rp2050
sS'Munhall'
p2051
g1
((lp2052
g6
atp2053
Rp2054
sS'Canyon'
p2055
g1
((lp2056
g6
aS'Lake'
p2057
atp2058
Rp2059
sS'Rayne'
p2060
g1
((lp2061
g6
atp2062
Rp2063
sS'Kingfisher'
p2064
g1
((lp2065
g6
atp2066
Rp2067
sS'Strongsville'
p2068
g1
((lp2069
g6
atp2070
Rp2071
sS'Sylvester'
p2072
g1
((lp2073
g6
atp2074
Rp2075
sS'Minden'
p2076
g1
((lp2077
g6
atp2078
Rp2079
sS'Hays'
p2080
g1
((lp2081
g6
atp2082
Rp2083
sS'Jourdanton'
p2084
g1
((lp2085
g6
atp2086
Rp2087
sS'Central'
p2088
g1
((lp2089
S'City'
p2090
aS'Point'
p2091
aS'Falls'
p2092
atp2093
Rp2094
sS'Statesville'
p2095
g1
((lp2096
g6
atp2097
Rp2098
sS'Cresskill'
p2099
g1
((lp2100
g6
atp2101
Rp2102
sS'Marksville'
p2103
g1
((lp2104
g6
atp2105
Rp2106
sS'Millersville'
p2107
g1
((lp2108
g6
atp2109
Rp2110
sS'Nappanee'
p2111
g1
((lp2112
g6
atp2113
Rp2114
sS'Caribou'
p2115
g1
((lp2116
g6
atp2117
Rp2118
sS'Sellersburg'
p2119
g1
((lp2120
g6
atp2121
Rp2122
sS'Cupertino'
p2123
g1
((lp2124
g6
atp2125
Rp2126
sS'Bridgeton'
p2127
g1
((lp2128
g6
atp2129
Rp2130
sS'Speedway'
p2131
g1
((lp2132
g6
atp2133
Rp2134
sS'Thomson'
p2135
g1
((lp2136
g6
atp2137
Rp2138
sS'Hightstown'
p2139
g1
((lp2140
g6
atp2141
Rp2142
sS'Sellersville'
p2143
g1
((lp2144
g6
atp2145
Rp2146
sS'Stratford'
p2147
g1
((lp2148
g6
atp2149
Rp2150
sS'Logansport'
p2151
g1
((lp2152
g6
atp2153
Rp2154
sS'Otsego'
p2155
g1
((lp2156
g6
atp2157
Rp2158
sS'Taylorville'
p2159
g1
((lp2160
g6
atp2161
Rp2162
sS'Wyomissing'
p2163
g1
((lp2164
g6
atp2165
Rp2166
sS'Aberdeen'
p2167
g1
((lp2168
g6
atp2169
Rp2170
sS'Carlisle'
p2171
g1
((lp2172
g6
atp2173
Rp2174
sS'Cuyahoga'
p2175
g1
((lp2176
S'Falls'
p2177
atp2178
Rp2179
sS'Fullerton'
p2180
g1
((lp2181
g6
atp2182
Rp2183
sS'Alamogordo'
p2184
g1
((lp2185
g6
atp2186
Rp2187
sS'Forest'
p2188
g1
((lp2189
g6
aS'City'
p2190
aS'Hills'
p2191
aS'Grove'
p2192
aS'Park'
p2193
aS'Lake'
p2194
aS'Acres'
p2195
aS'Hill'
p2196
atp2197
Rp2198
sS'Mineola'
p2199
g1
((lp2200
g6
atp2201
Rp2202
sS'Burley'
p2203
g1
((lp2204
g6
atp2205
Rp2206
sS'Lompoc'
p2207
g1
((lp2208
g6
atp2209
Rp2210
sS'Senatobia'
p2211
g1
((lp2212
g6
atp2213
Rp2214
sS'Butte-Silver'
p2215
g1
((lp2216
S'Bow'
p2217
atp2218
Rp2219
sS'Victorville'
p2220
g1
((lp2221
g6
atp2222
Rp2223
sS'Southern'
p2224
g1
((lp2225
S'Pines'
p2226
atp2227
Rp2228
sS'Hazard'
p2229
g1
((lp2230
g6
atp2231
Rp2232
sS'Mamaroneck'
p2233
g1
((lp2234
g6
atp2235
Rp2236
sS'Hallandale'
p2237
g1
((lp2238
S'Beach'
p2239
atp2240
Rp2241
sS'Jeanerette'
p2242
g1
((lp2243
g6
atp2244
Rp2245
sS'Stallings'
p2246
g1
((lp2247
g6
atp2248
Rp2249
sS'Scottdale'
p2250
g1
((lp2251
g6
atp2252
Rp2253
sS'Clermont'
p2254
g1
((lp2255
g6
atp2256
Rp2257
sS'Amite'
p2258
g1
((lp2259
S'City'
p2260
atp2261
Rp2262
sS'Fergus'
p2263
g1
((lp2264
S'Falls'
p2265
atp2266
Rp2267
sS'Harrisonville'
p2268
g1
((lp2269
g6
atp2270
Rp2271
sS'Front'
p2272
g1
((lp2273
S'Royal'
p2274
atp2275
Rp2276
sS'Anaheim'
p2277
g1
((lp2278
g6
atp2279
Rp2280
sS'Coronado'
p2281
g1
((lp2282
g6
atp2283
Rp2284
sS'Stuart'
p2285
g1
((lp2286
g6
atp2287
Rp2288
sS'Dunmore'
p2289
g1
((lp2290
g6
atp2291
Rp2292
sS'Fayetteville'
p2293
g1
((lp2294
g6
atp2295
Rp2296
sS'Bozeman'
p2297
g1
((lp2298
g6
atp2299
Rp2300
sS'Manheim'
p2301
g1
((lp2302
g6
atp2303
Rp2304
sS'Chittenango'
p2305
g1
((lp2306
g6
atp2307
Rp2308
sS'Holmes'
p2309
g1
((lp2310
S'Beach'
p2311
atp2312
Rp2313
sS'Upper'
p2314
g1
((lp2315
S'Arlington'
p2316
aS'Sandusky'
p2317
aS'Saddle'
p2318
atp2319
Rp2320
sS'Elgin'
p2321
g1
((lp2322
g6
atp2323
Rp2324
sS'Fillmore'
p2325
g1
((lp2326
g6
atp2327
Rp2328
sS'Conway'
p2329
g1
((lp2330
g6
atp2331
Rp2332
sS'Kiryas'
p2333
g1
((lp2334
S'Joel'
p2335
atp2336
Rp2337
sS'Worcester'
p2338
g1
((lp2339
g6
atp2340
Rp2341
sS'Delano'
p2342
g1
((lp2343
g6
atp2344
Rp2345
sS'Kaufman'
p2346
g1
((lp2347
g6
atp2348
Rp2349
sS'Mechanicsburg'
p2350
g1
((lp2351
g6
atp2352
Rp2353
sS'Altoona'
p2354
g1
((lp2355
g6
atp2356
Rp2357
sS'Rumson'
p2358
g1
((lp2359
g6
atp2360
Rp2361
sS'Harrison'
p2362
g1
((lp2363
g6
atp2364
Rp2365
sS'Cleveland'
p2366
g1
((lp2367
g6
aS'Heights'
p2368
atp2369
Rp2370
sS'Campbell'
p2371
g1
((lp2372
g6
atp2373
Rp2374
sS'Tigard'
p2375
g1
((lp2376
g6
atp2377
Rp2378
sS'Holmen'
p2379
g1
((lp2380
g6
atp2381
Rp2382
sS'Hood'
p2383
g1
((lp2384
S'River'
p2385
atp2386
Rp2387
sS'Troutdale'
p2388
g1
((lp2389
g6
atp2390
Rp2391
sS'Temecula'
p2392
g1
((lp2393
g6
atp2394
Rp2395
sS'Simpsonville'
p2396
g1
((lp2397
g6
atp2398
Rp2399
sS'Gilberts'
p2400
g1
((lp2401
g6
atp2402
Rp2403
sS'Berwyn'
p2404
g1
((lp2405
g6
atp2406
Rp2407
sS'Danville'
p2408
g1
((lp2409
g6
atp2410
Rp2411
sS'Crestline'
p2412
g1
((lp2413
g6
atp2414
Rp2415
sS'Athens'
p2416
g1
((lp2417
g6
atp2418
Rp2419
sS'Morganton'
p2420
g1
((lp2421
g6
atp2422
Rp2423
sS'Tyrone'
p2424
g1
((lp2425
g6
atp2426
Rp2427
sS'Jenks'
p2428
g1
((lp2429
g6
atp2430
Rp2431
sS'Brookings'
p2432
g1
((lp2433
g6
atp2434
Rp2435
sS'Tell'
p2436
g1
((lp2437
S'City'
p2438
atp2439
Rp2440
sS'Archbald'
p2441
g1
((lp2442
g6
atp2443
Rp2444
sS'Hibbing'
p2445
g1
((lp2446
g6
atp2447
Rp2448
sS'Georgetown'
p2449
g1
((lp2450
g6
atp2451
Rp2452
sS'Moosic'
p2453
g1
((lp2454
g6
atp2455
Rp2456
sS'Mishawaka'
p2457
g1
((lp2458
g6
atp2459
Rp2460
sS'Mendota'
p2461
g1
((lp2462
g6
aS'Heights'
p2463
atp2464
Rp2465
sS'Stow'
p2466
g1
((lp2467
g6
atp2468
Rp2469
sS'Jerome'
p2470
g1
((lp2471
g6
atp2472
Rp2473
sS'Apopka'
p2474
g1
((lp2475
g6
atp2476
Rp2477
sS'Harrisburg'
p2478
g1
((lp2479
g6
atp2480
Rp2481
sS'Pratt'
p2482
g1
((lp2483
g6
atp2484
Rp2485
sS'Idaho'
p2486
g1
((lp2487
S'Falls'
p2488
atp2489
Rp2490
sS'Chapel'
p2491
g1
((lp2492
S'Hill'
p2493
atp2494
Rp2495
sS'DeRidder'
p2496
g1
((lp2497
g6
atp2498
Rp2499
sS'Gastonia'
p2500
g1
((lp2501
g6
atp2502
Rp2503
sS'Sandpoint'
p2504
g1
((lp2505
g6
atp2506
Rp2507
sS'Lyndhurst'
p2508
g1
((lp2509
g6
atp2510
Rp2511
sS'Freeport'
p2512
g1
((lp2513
g6
atp2514
Rp2515
sS'Bristow'
p2516
g1
((lp2517
g6
atp2518
Rp2519
sS'Reidsville'
p2520
g1
((lp2521
g6
atp2522
Rp2523
sS'Wyandotte'
p2524
g1
((lp2525
g6
atp2526
Rp2527
sS'Papillion'
p2528
g1
((lp2529
g6
atp2530
Rp2531
sS'Bristol'
p2532
g1
((lp2533
g6
atp2534
Rp2535
sS'Audubon'
p2536
g1
((lp2537
g6
atp2538
Rp2539
sS'Ashland'
p2540
g1
((lp2541
g6
aS'City'
p2542
atp2543
Rp2544
sS'Prichard'
p2545
g1
((lp2546
g6
atp2547
Rp2548
sS'Hinsdale'
p2549
g1
((lp2550
g6
atp2551
Rp2552
sS'Okmulgee'
p2553
g1
((lp2554
g6
atp2555
Rp2556
sS'Forrest'
p2557
g1
((lp2558
S'City'
p2559
atp2560
Rp2561
sS'Gresham'
p2562
g1
((lp2563
g6
atp2564
Rp2565
sS'Durango'
p2566
g1
((lp2567
g6
atp2568
Rp2569
sS'Parma'
p2570
g1
((lp2571
g6
aS'Heights'
p2572
atp2573
Rp2574
sS'Ventnor'
p2575
g1
((lp2576
S'City'
p2577
atp2578
Rp2579
sS'Belton'
p2580
g1
((lp2581
g6
atp2582
Rp2583
sS'Dexter'
p2584
g1
((lp2585
g6
atp2586
Rp2587
sS'Hilton'
p2588
g1
((lp2589
g6
aS'Head'
p2590
atp2591
Rp2592
sS'Portland'
p2593
g1
((lp2594
g6
atp2595
Rp2596
sS'Roseburg'
p2597
g1
((lp2598
g6
atp2599
Rp2600
sS'Mint'
p2601
g1
((lp2602
S'Hill'
p2603
atp2604
Rp2605
sS'Griffin'
p2606
g1
((lp2607
g6
atp2608
Rp2609
sS'Rapid'
p2610
g1
((lp2611
S'City'
p2612
atp2613
Rp2614
sS'Kerman'
p2615
g1
((lp2616
g6
atp2617
Rp2618
sS'Sheldon'
p2619
g1
((lp2620
g6
atp2621
Rp2622
sS'Parkland'
p2623
g1
((lp2624
g6
atp2625
Rp2626
sS'Williamsburg'
p2627
g1
((lp2628
g6
atp2629
Rp2630
sS'Lumberton'
p2631
g1
((lp2632
g6
atp2633
Rp2634
sS'Tuttle'
p2635
g1
((lp2636
g6
atp2637
Rp2638
sS'Surprise'
p2639
g1
((lp2640
g6
atp2641
Rp2642
sS'Culpeper'
p2643
g1
((lp2644
g6
atp2645
Rp2646
sS'Elkins'
p2647
g1
((lp2648
g6
atp2649
Rp2650
sS'Happy'
p2651
g1
((lp2652
S'Valley'
p2653
atp2654
Rp2655
sS'Kirksville'
p2656
g1
((lp2657
g6
atp2658
Rp2659
sS'Ballwin'
p2660
g1
((lp2661
g6
atp2662
Rp2663
sS'Eunice'
p2664
g1
((lp2665
g6
atp2666
Rp2667
sS'Gas'
p2668
g1
((lp2669
S'City'
p2670
atp2671
Rp2672
sS'Astoria'
p2673
g1
((lp2674
g6
atp2675
Rp2676
sS'Sweetwater'
p2677
g1
((lp2678
g6
atp2679
Rp2680
sS'Flint'
p2681
g1
((lp2682
g6
atp2683
Rp2684
sS'Mequon'
p2685
g1
((lp2686
g6
atp2687
Rp2688
sS'Harvey'
p2689
g1
((lp2690
g6
atp2691
Rp2692
sS'Andalusia'
p2693
g1
((lp2694
g6
atp2695
Rp2696
sS'Luverne'
p2697
g1
((lp2698
g6
atp2699
Rp2700
sS'Cartersville'
p2701
g1
((lp2702
g6
atp2703
Rp2704
sS'Tampa'
p2705
g1
((lp2706
g6
atp2707
Rp2708
sS'Childress'
p2709
g1
((lp2710
g6
atp2711
Rp2712
sS'Manlius'
p2713
g1
((lp2714
g6
atp2715
Rp2716
sS'Grantsville'
p2717
g1
((lp2718
g6
atp2719
Rp2720
sS'Sturgis'
p2721
g1
((lp2722
g6
atp2723
Rp2724
sS'Alice'
p2725
g1
((lp2726
g6
atp2727
Rp2728
sS'Corona'
p2729
g1
((lp2730
g6
atp2731
Rp2732
sS'Gatlinburg'
p2733
g1
((lp2734
g6
atp2735
Rp2736
sS'Marlow'
p2737
g1
((lp2738
g6
atp2739
Rp2740
sS'Alamo'
p2741
g1
((lp2742
g6
aS'Heights'
p2743
atp2744
Rp2745
sS'Missouri'
p2746
g1
((lp2747
S'City'
p2748
atp2749
Rp2750
sS'Aransas'
p2751
g1
((lp2752
S'Pass'
p2753
atp2754
Rp2755
sS'Grass'
p2756
g1
((lp2757
S'Valley'
p2758
atp2759
Rp2760
sS'Texarkana'
p2761
g1
((lp2762
g6
atp2763
Rp2764
sS'Scotts'
p2765
g1
((lp2766
S'Valley'
p2767
atp2768
Rp2769
sS'Fresno'
p2770
g1
((lp2771
g6
atp2772
Rp2773
sS'Kenmore'
p2774
g1
((lp2775
g6
atp2776
Rp2777
sS'Kingsport'
p2778
g1
((lp2779
g6
atp2780
Rp2781
sS'Hialeah'
p2782
g1
((lp2783
g6
aS'Gardens'
p2784
atp2785
Rp2786
sS'Kelso'
p2787
g1
((lp2788
g6
atp2789
Rp2790
sS'Tulia'
p2791
g1
((lp2792
g6
atp2793
Rp2794
sS'Fate'
p2795
g1
((lp2796
g6
atp2797
Rp2798
sS'Ithaca'
p2799
g1
((lp2800
g6
atp2801
Rp2802
sS'Taneytown'
p2803
g1
((lp2804
g6
atp2805
Rp2806
sS'Naperville'
p2807
g1
((lp2808
g6
atp2809
Rp2810
sS'Warren'
p2811
g1
((lp2812
g6
atp2813
Rp2814
sS'Eufaula'
p2815
g1
((lp2816
g6
atp2817
Rp2818
sS'Milpitas'
p2819
g1
((lp2820
g6
atp2821
Rp2822
sS'Caldwell'
p2823
g1
((lp2824
g6
atp2825
Rp2826
sS'Waynesville'
p2827
g1
((lp2828
g6
atp2829
Rp2830
sS'Garrett'
p2831
g1
((lp2832
g6
atp2833
Rp2834
sS'Steamboat'
p2835
g1
((lp2836
S'Springs'
p2837
atp2838
Rp2839
sS'Oskaloosa'
p2840
g1
((lp2841
g6
atp2842
Rp2843
sS'Hillsborough'
p2844
g1
((lp2845
g6
atp2846
Rp2847
sS'LaBelle'
p2848
g1
((lp2849
g6
atp2850
Rp2851
sS'Jerseyville'
p2852
g1
((lp2853
g6
atp2854
Rp2855
sS'Fargo'
p2856
g1
((lp2857
g6
atp2858
Rp2859
sS'Norton'
p2860
g1
((lp2861
S'Shores'
p2862
ag6
atp2863
Rp2864
sS'Goodyear'
p2865
g1
((lp2866
g6
atp2867
Rp2868
sS'Merrillville'
p2869
g1
((lp2870
g6
atp2871
Rp2872
sS'Blackfoot'
p2873
g1
((lp2874
g6
atp2875
Rp2876
sS'Edinburgh'
p2877
g1
((lp2878
g6
atp2879
Rp2880
sS'Malibu'
p2881
g1
((lp2882
g6
atp2883
Rp2884
sS'Glassport'
p2885
g1
((lp2886
g6
atp2887
Rp2888
sS'Redwood'
p2889
g1
((lp2890
S'City'
p2891
aS'Falls'
p2892
atp2893
Rp2894
sS'Pittsfield'
p2895
g1
((lp2896
g6
atp2897
Rp2898
sS'Passaic'
p2899
g1
((lp2900
g6
atp2901
Rp2902
sS'Peoria'
p2903
g1
((lp2904
g6
aS'Heights'
p2905
atp2906
Rp2907
sS'Worland'
p2908
g1
((lp2909
g6
atp2910
Rp2911
sS'Perryton'
p2912
g1
((lp2913
g6
atp2914
Rp2915
sS'Donora'
p2916
g1
((lp2917
g6
atp2918
Rp2919
sS'Pocahontas'
p2920
g1
((lp2921
g6
atp2922
Rp2923
sS'Syracuse'
p2924
g1
((lp2925
g6
atp2926
Rp2927
sS'Clawson'
p2928
g1
((lp2929
g6
atp2930
Rp2931
sS'Arcadia'
p2932
g1
((lp2933
g6
atp2934
Rp2935
sS'Pitman'
p2936
g1
((lp2937
g6
atp2938
Rp2939
sS'Pooler'
p2940
g1
((lp2941
g6
atp2942
Rp2943
sS'Macon'
p2944
g1
((lp2945
g6
atp2946
Rp2947
sS'Baxter'
p2948
g1
((lp2949
g6
atp2950
Rp2951
sS'Madison'
p2952
g1
((lp2953
g6
aS'Heights'
p2954
atp2955
Rp2956
sS'Duquesne'
p2957
g1
((lp2958
g6
atp2959
Rp2960
sS'Schiller'
p2961
g1
((lp2962
S'Park'
p2963
atp2964
Rp2965
sS'Fair'
p2966
g1
((lp2967
S'Lawn'
p2968
aS'Oaks'
p2969
aS'Haven'
p2970
atp2971
Rp2972
sS'Yreka'
p2973
g1
((lp2974
g6
atp2975
Rp2976
sS'Elmwood'
p2977
g1
((lp2978
S'Park'
p2979
atp2980
Rp2981
sS'Delphos'
p2982
g1
((lp2983
g6
atp2984
Rp2985
sS'Westerville'
p2986
g1
((lp2987
g6
atp2988
Rp2989
sS'Walkertown'
p2990
g1
((lp2991
g6
atp2992
Rp2993
sS'Essex'
p2994
g1
((lp2995
S'Junction'
p2996
atp2997
Rp2998
sS'Gustine'
p2999
g1
((lp3000
g6
atp3001
Rp3002
sS'Cotati'
p3003
g1
((lp3004
g6
atp3005
Rp3006
sS'Hannibal'
p3007
g1
((lp3008
g6
atp3009
Rp3010
sS'Hackettstown'
p3011
g1
((lp3012
g6
atp3013
Rp3014
sS'Powder'
p3015
g1
((lp3016
S'Springs'
p3017
atp3018
Rp3019
sS'Cameron'
p3020
g1
((lp3021
g6
atp3022
Rp3023
sS'Muscatine'
p3024
g1
((lp3025
g6
atp3026
Rp3027
sS'Glassboro'
p3028
g1
((lp3029
g6
atp3030
Rp3031
sS'Donaldsonville'
p3032
g1
((lp3033
g6
atp3034
Rp3035
sS'Guthrie'
p3036
g1
((lp3037
g6
atp3038
Rp3039
sS'Dallas'
p3040
g1
((lp3041
g6
atp3042
Rp3043
sS'Linton'
p3044
g1
((lp3045
g6
atp3046
Rp3047
sS'Fairfield'
p3048
g1
((lp3049
g6
atp3050
Rp3051
sS'Sitka'
p3052
g1
((lp3053
S'and'
p3054
atp3055
Rp3056
sS'Meriden'
p3057
g1
((lp3058
g6
atp3059
Rp3060
sS'Cynthiana'
p3061
g1
((lp3062
g6
atp3063
Rp3064
sS'Jeannette'
p3065
g1
((lp3066
g6
atp3067
Rp3068
sS'Agawam'
p3069
g1
((lp3070
g6
atp3071
Rp3072
sS'Crest'
p3073
g1
((lp3074
S'Hill'
p3075
atp3076
Rp3077
sS'Raritan'
p3078
g1
((lp3079
g6
atp3080
Rp3081
sS'Richfield'
p3082
g1
((lp3083
g6
atp3084
Rp3085
sS'Cranston'
p3086
g1
((lp3087
g6
atp3088
Rp3089
sS'Florissant'
p3090
g1
((lp3091
g6
atp3092
Rp3093
sS'Cedarhurst'
p3094
g1
((lp3095
g6
atp3096
Rp3097
sS'Firebaugh'
p3098
g1
((lp3099
g6
atp3100
Rp3101
sS'Martin'
p3102
g1
((lp3103
g6
atp3104
Rp3105
sS'Dormont'
p3106
g1
((lp3107
g6
atp3108
Rp3109
sS'Merriam'
p3110
g1
((lp3111
g6
atp3112
Rp3113
sS'Hobart'
p3114
g1
((lp3115
g6
atp3116
Rp3117
sS'Ames'
p3118
g1
((lp3119
g6
atp3120
Rp3121
sS'Calexico'
p3122
g1
((lp3123
g6
atp3124
Rp3125
sS'Homestead'
p3126
g1
((lp3127
g6
atp3128
Rp3129
sS'Holdenville'
p3130
g1
((lp3131
g6
atp3132
Rp3133
sS'Norwood'
p3134
g1
((lp3135
g6
atp3136
Rp3137
sS'Maryville'
p3138
g1
((lp3139
g6
atp3140
Rp3141
sS'Boerne'
p3142
g1
((lp3143
g6
atp3144
Rp3145
sS'Dade'
p3146
g1
((lp3147
S'City'
p3148
atp3149
Rp3150
sS'Holdrege'
p3151
g1
((lp3152
g6
atp3153
Rp3154
sS'Belleville'
p3155
g1
((lp3156
g6
atp3157
Rp3158
sS'Worth'
p3159
g1
((lp3160
g6
atp3161
Rp3162
sS'Peekskill'
p3163
g1
((lp3164
g6
atp3165
Rp3166
sS'Porterville'
p3167
g1
((lp3168
g6
atp3169
Rp3170
sS'Marianna'
p3171
g1
((lp3172
g6
atp3173
Rp3174
sS'Tallulah'
p3175
g1
((lp3176
g6
atp3177
Rp3178
sS'Lansdowne'
p3179
g1
((lp3180
g6
atp3181
Rp3182
sS'Golden'
p3183
g1
((lp3184
g6
aS'Valley'
p3185
atp3186
Rp3187
sS'Southfield'
p3188
g1
((lp3189
g6
atp3190
Rp3191
sS'Pinckneyville'
p3192
g1
((lp3193
g6
atp3194
Rp3195
sS'Pleasanton'
p3196
g1
((lp3197
g6
atp3198
Rp3199
sS'Bonner'
p3200
g1
((lp3201
S'Springs'
p3202
atp3203
Rp3204
sS'Bainbridge'
p3205
g1
((lp3206
g6
aS'Island'
p3207
atp3208
Rp3209
sS'Gaithersburg'
p3210
g1
((lp3211
g6
atp3212
Rp3213
sS'Weatherford'
p3214
g1
((lp3215
g6
atp3216
Rp3217
sS'Bonney'
p3218
g1
((lp3219
S'Lake'
p3220
atp3221
Rp3222
sS'Vista'
p3223
g1
((lp3224
g6
atp3225
Rp3226
sS'Waveland'
p3227
g1
((lp3228
g6
atp3229
Rp3230
sS'Birdsboro'
p3231
g1
((lp3232
g6
atp3233
Rp3234
sS'Oakwood'
p3235
g1
((lp3236
g6
atp3237
Rp3238
sS'Hudson'
p3239
g1
((lp3240
g6
aS'Falls'
p3241
atp3242
Rp3243
sS'Chubbuck'
p3244
g1
((lp3245
g6
atp3246
Rp3247
sS'Orrville'
p3248
g1
((lp3249
g6
atp3250
Rp3251
sS'Carson'
p3252
g1
((lp3253
g6
aS'City'
p3254
atp3255
Rp3256
sS'Cabot'
p3257
g1
((lp3258
g6
atp3259
Rp3260
sS'Belleview'
p3261
g1
((lp3262
g6
atp3263
Rp3264
sS'Champlin'
p3265
g1
((lp3266
g6
atp3267
Rp3268
sS'Weston'
p3269
g1
((lp3270
g6
atp3271
Rp3272
sS'Circleville'
p3273
g1
((lp3274
g6
atp3275
Rp3276
sS'Piedmont'
p3277
g1
((lp3278
g6
atp3279
Rp3280
sS'Falls'
p3281
g1
((lp3282
S'Church'
p3283
atp3284
Rp3285
sS'Braidwood'
p3286
g1
((lp3287
g6
atp3288
Rp3289
sS'Hernando'
p3290
g1
((lp3291
g6
atp3292
Rp3293
sS'Homewood'
p3294
g1
((lp3295
g6
atp3296
Rp3297
sS'Reynoldsburg'
p3298
g1
((lp3299
g6
atp3300
Rp3301
sS'Galena'
p3302
g1
((lp3303
S'Park'
p3304
atp3305
Rp3306
sS'Tracy'
p3307
g1
((lp3308
g6
atp3309
Rp3310
sS'Economy'
p3311
g1
((lp3312
g6
atp3313
Rp3314
sS'Isanti'
p3315
g1
((lp3316
g6
atp3317
Rp3318
sS'Costa'
p3319
g1
((lp3320
S'Mesa'
p3321
atp3322
Rp3323
sS'Zachary'
p3324
g1
((lp3325
g6
atp3326
Rp3327
sS'Daytona'
p3328
g1
((lp3329
S'Beach'
p3330
atp3331
Rp3332
sS'Carrboro'
p3333
g1
((lp3334
g6
atp3335
Rp3336
sS'Gahanna'
p3337
g1
((lp3338
g6
atp3339
Rp3340
sS'Wichita'
p3341
g1
((lp3342
g6
aS'Falls'
p3343
atp3344
Rp3345
sS'Hillsdale'
p3346
g1
((lp3347
g6
atp3348
Rp3349
sS'Arnold'
p3350
g1
((lp3351
g6
atp3352
Rp3353
sS'Gardena'
p3354
g1
((lp3355
g6
atp3356
Rp3357
sS'Melbourne'
p3358
g1
((lp3359
g6
atp3360
Rp3361
sS'Rensselaer'
p3362
g1
((lp3363
g6
atp3364
Rp3365
sS'Norcross'
p3366
g1
((lp3367
g6
atp3368
Rp3369
sS'Woodhaven'
p3370
g1
((lp3371
g6
atp3372
Rp3373
sS'Lomita'
p3374
g1
((lp3375
g6
atp3376
Rp3377
sS'Mocksville'
p3378
g1
((lp3379
g6
atp3380
Rp3381
sS'Wappingers'
p3382
g1
((lp3383
S'Falls'
p3384
atp3385
Rp3386
sS'Weiser'
p3387
g1
((lp3388
g6
atp3389
Rp3390
sS'Tupelo'
p3391
g1
((lp3392
g6
atp3393
Rp3394
sS'Sebring'
p3395
g1
((lp3396
g6
atp3397
Rp3398
sS'Clifton'
p3399
g1
((lp3400
g6
aS'Heights'
p3401
atp3402
Rp3403
sS'Mission'
p3404
g1
((lp3405
S'Viejo'
p3406
ag6
atp3407
Rp3408
sS'Dumas'
p3409
g1
((lp3410
g6
atp3411
Rp3412
sS'Pittsburgh'
p3413
g1
((lp3414
g6
atp3415
Rp3416
sS'Madeira'
p3417
g1
((lp3418
g6
aS'Beach'
p3419
atp3420
Rp3421
sS'Crescent'
p3422
g1
((lp3423
S'City'
p3424
atp3425
Rp3426
sS'Keller'
p3427
g1
((lp3428
g6
atp3429
Rp3430
sS'Vandergrift'
p3431
g1
((lp3432
g6
atp3433
Rp3434
sS'Mauston'
p3435
g1
((lp3436
g6
atp3437
Rp3438
sS'Madras'
p3439
g1
((lp3440
g6
atp3441
Rp3442
sS'Shelby'
p3443
g1
((lp3444
g6
atp3445
Rp3446
sS'Glenolden'
p3447
g1
((lp3448
g6
atp3449
Rp3450
sS'Florham'
p3451
g1
((lp3452
S'Park'
p3453
atp3454
Rp3455
sS'Springdale'
p3456
g1
((lp3457
g6
atp3458
Rp3459
sS'Kaukauna'
p3460
g1
((lp3461
g6
atp3462
Rp3463
sS'Pacifica'
p3464
g1
((lp3465
g6
atp3466
Rp3467
sS'Republic'
p3468
g1
((lp3469
g6
atp3470
Rp3471
sS'Wabash'
p3472
g1
((lp3473
g6
atp3474
Rp3475
sS'Indiana'
p3476
g1
((lp3477
g6
atp3478
Rp3479
sS'Nyack'
p3480
g1
((lp3481
g6
atp3482
Rp3483
sS'Anacortes'
p3484
g1
((lp3485
g6
atp3486
Rp3487
sS'Booneville'
p3488
g1
((lp3489
g6
atp3490
Rp3491
sS'Columbia'
p3492
g1
((lp3493
g6
aS'City'
p3494
aS'Falls'
p3495
aS'Heights'
p3496
atp3497
Rp3498
sS'Trussville'
p3499
g1
((lp3500
g6
atp3501
Rp3502
sS'Verona'
p3503
g1
((lp3504
g6
atp3505
Rp3506
sS'Ridley'
p3507
g1
((lp3508
S'Park'
p3509
atp3510
Rp3511
sS'Lapeer'
p3512
g1
((lp3513
g6
atp3514
Rp3515
sS'Willowbrook'
p3516
g1
((lp3517
g6
atp3518
Rp3519
sS'Purcell'
p3520
g1
((lp3521
g6
atp3522
Rp3523
sS'Burr'
p3524
g1
((lp3525
S'Ridge'
p3526
atp3527
Rp3528
sS'Atlanta'
p3529
g1
((lp3530
g6
atp3531
Rp3532
sS'Easton'
p3533
g1
((lp3534
g6
atp3535
Rp3536
sS'Orem'
p3537
g1
((lp3538
g6
atp3539
Rp3540
sS'Lynnwood'
p3541
g1
((lp3542
g6
atp3543
Rp3544
sS'Uvalde'
p3545
g1
((lp3546
g6
atp3547
Rp3548
sS'Scranton'
p3549
g1
((lp3550
g6
atp3551
Rp3552
sS'Lakeland'
p3553
g1
((lp3554
g6
atp3555
Rp3556
sS'Frostburg'
p3557
g1
((lp3558
g6
atp3559
Rp3560
sS'Closter'
p3561
g1
((lp3562
g6
atp3563
Rp3564
sS'Kodiak'
p3565
g1
((lp3566
g6
atp3567
Rp3568
sS'Montoursville'
p3569
g1
((lp3570
g6
atp3571
Rp3572
sS'Edgefield'
p3573
g1
((lp3574
g6
atp3575
Rp3576
sS'Wildwood'
p3577
g1
((lp3578
g6
atp3579
Rp3580
sS'Jersey'
p3581
g1
((lp3582
S'City'
p3583
aS'Shore'
p3584
aS'Village'
p3585
atp3586
Rp3587
sS'Belmar'
p3588
g1
((lp3589
g6
atp3590
Rp3591
sS'Parker'
p3592
g1
((lp3593
g6
atp3594
Rp3595
sS'Ulysses'
p3596
g1
((lp3597
g6
atp3598
Rp3599
sS'Tolleson'
p3600
g1
((lp3601
g6
atp3602
Rp3603
sS'Plattsmouth'
p3604
g1
((lp3605
g6
atp3606
Rp3607
sS'Mundelein'
p3608
g1
((lp3609
g6
atp3610
Rp3611
sS'Lampasas'
p3612
g1
((lp3613
g6
atp3614
Rp3615
sS'Hereford'
p3616
g1
((lp3617
g6
atp3618
Rp3619
sS'Barnwell'
p3620
g1
((lp3621
g6
atp3622
Rp3623
sS'Frankenmuth'
p3624
g1
((lp3625
g6
atp3626
Rp3627
sS'Flowood'
p3628
g1
((lp3629
g6
atp3630
Rp3631
sS'Firestone'
p3632
g1
((lp3633
g6
atp3634
Rp3635
sS'Ocala'
p3636
g1
((lp3637
g6
atp3638
Rp3639
sS'Novi'
p3640
g1
((lp3641
g6
atp3642
Rp3643
sS'Wilton'
p3644
g1
((lp3645
S'Manors'
p3646
atp3647
Rp3648
sS'Byron'
p3649
g1
((lp3650
g6
atp3651
Rp3652
sS'Lago'
p3653
g1
((lp3654
S'Vista'
p3655
atp3656
Rp3657
sS'Burlington'
p3658
g1
((lp3659
g6
atp3660
Rp3661
sS'Orange'
p3662
g1
((lp3663
g6
aS'City'
p3664
aS'Beach'
p3665
aS'Park'
p3666
aS'Cove'
p3667
atp3668
Rp3669
sS'Midlothian'
p3670
g1
((lp3671
g6
atp3672
Rp3673
sS'Rice'
p3674
g1
((lp3675
S'Lake'
p3676
atp3677
Rp3678
sS'Red'
p3679
g1
((lp3680
S'Lion'
p3681
aS'Oak'
p3682
aS'Wing'
p3683
aS'Bluff'
p3684
aS'Bank'
p3685
atp3686
Rp3687
sS'Waupaca'
p3688
g1
((lp3689
g6
atp3690
Rp3691
sS'Punta'
p3692
g1
((lp3693
S'Gorda'
p3694
atp3695
Rp3696
sS'Kannapolis'
p3697
g1
((lp3698
g6
atp3699
Rp3700
sS'Sheffield'
p3701
g1
((lp3702
g6
aS'Lake'
p3703
atp3704
Rp3705
sS'Slaton'
p3706
g1
((lp3707
g6
atp3708
Rp3709
sS'Haverhill'
p3710
g1
((lp3711
g6
atp3712
Rp3713
sS'Pottstown'
p3714
g1
((lp3715
g6
atp3716
Rp3717
sS'Honolulu'
p3718
g1
((lp3719
g6
atp3720
Rp3721
sS'Austell'
p3722
g1
((lp3723
g6
atp3724
Rp3725
sS'Peculiar'
p3726
g1
((lp3727
g6
atp3728
Rp3729
sS'Fort'
p3730
g1
((lp3731
S'Smith'
p3732
aS'Atkinson'
p3733
aS'Bragg'
p3734
aS'Wayne'
p3735
aS'Collins'
p3736
aS'Valley'
p3737
aS'Worth'
p3738
aS'Dodge'
p3739
aS'Lee'
p3740
aS'Gibson'
p3741
aS'Payne'
p3742
aS'Walton'
p3743
aS'Lauderdale'
p3744
aS'Lupton'
p3745
aS'Pierce'
p3746
aS'Oglethorpe'
p3747
aS'Madison'
p3748
aS'Meade'
p3749
aS'Morgan'
p3750
aS'Myers'
p3751
aS'Mitchell'
p3752
aS'Thomas'
p3753
aS'Stockton'
p3754
aS'Wright'
p3755
aS'Scott'
p3756
aS'Mill'
p3757
atp3758
Rp3759
sS'Wayne'
p3760
g1
((lp3761
g6
atp3762
Rp3763
sS'Mineral'
p3764
g1
((lp3765
S'Wells'
p3766
atp3767
Rp3768
sS'Hopkins'
p3769
g1
((lp3770
g6
atp3771
Rp3772
sS'Lacy-Lakeview'
p3773
g1
((lp3774
g6
atp3775
Rp3776
sS'Youngstown'
p3777
g1
((lp3778
g6
atp3779
Rp3780
sS'Sunnyvale'
p3781
g1
((lp3782
g6
atp3783
Rp3784
sS'Hoboken'
p3785
g1
((lp3786
g6
atp3787
Rp3788
sS'Sauk'
p3789
g1
((lp3790
S'Village'
p3791
aS'Rapids'
p3792
atp3793
Rp3794
sS'Perkasie'
p3795
g1
((lp3796
g6
atp3797
Rp3798
sS'Warner'
p3799
g1
((lp3800
S'Robins'
p3801
atp3802
Rp3803
sS'Webb'
p3804
g1
((lp3805
S'City'
p3806
atp3807
Rp3808
sS'Friendswood'
p3809
g1
((lp3810
g6
atp3811
Rp3812
sS'Breese'
p3813
g1
((lp3814
g6
atp3815
Rp3816
sS'Bountiful'
p3817
g1
((lp3818
g6
atp3819
Rp3820
sS'Pocola'
p3821
g1
((lp3822
g6
atp3823
Rp3824
sS'Suisun'
p3825
g1
((lp3826
S'City'
p3827
atp3828
Rp3829
sS'Azle'
p3830
g1
((lp3831
g6
atp3832
Rp3833
sS'Wixom'
p3834
g1
((lp3835
g6
atp3836
Rp3837
sS'Baldwin'
p3838
g1
((lp3839
g6
aS'City'
p3840
aS'Park'
p3841
atp3842
Rp3843
sS'Justice'
p3844
g1
((lp3845
g6
atp3846
Rp3847
sS'Thornton'
p3848
g1
((lp3849
g6
atp3850
Rp3851
sS'Lansing'
p3852
g1
((lp3853
g6
atp3854
Rp3855
sS'Lisle'
p3856
g1
((lp3857
g6
atp3858
Rp3859
sS'Fountain'
p3860
g1
((lp3861
g6
aS'Inn'
p3862
aS'Valley'
p3863
aS'Hills'
p3864
aS'Hill'
p3865
atp3866
Rp3867
sS'McCook'
p3868
g1
((lp3869
g6
atp3870
Rp3871
sS'Hopatcong'
p3872
g1
((lp3873
g6
atp3874
Rp3875
sS'Coolidge'
p3876
g1
((lp3877
g6
atp3878
Rp3879
sS'Centreville'
p3880
g1
((lp3881
g6
atp3882
Rp3883
sS'Northville'
p3884
g1
((lp3885
g6
atp3886
Rp3887
sS'Davidson'
p3888
g1
((lp3889
g6
atp3890
Rp3891
sS'Acworth'
p3892
g1
((lp3893
g6
atp3894
Rp3895
sS'Sarasota'
p3896
g1
((lp3897
g6
atp3898
Rp3899
sS'Watsonville'
p3900
g1
((lp3901
g6
atp3902
Rp3903
sS'Owasso'
p3904
g1
((lp3905
g6
atp3906
Rp3907
sS'Needles'
p3908
g1
((lp3909
g6
atp3910
Rp3911
sS'Highwood'
p3912
g1
((lp3913
g6
atp3914
Rp3915
sS'Nixa'
p3916
g1
((lp3917
g6
atp3918
Rp3919
sS'Bettendorf'
p3920
g1
((lp3921
g6
atp3922
Rp3923
sS'Turtle'
p3924
g1
((lp3925
S'Creek'
p3926
atp3927
Rp3928
sS'Ansonia'
p3929
g1
((lp3930
g6
atp3931
Rp3932
sS'Selah'
p3933
g1
((lp3934
g6
atp3935
Rp3936
sS'Anderson'
p3937
g1
((lp3938
g6
atp3939
Rp3940
sS'Mount'
p3941
g1
((lp3942
S'Prospect'
p3943
aS'Sterling'
p3944
aS'Zion'
p3945
aS'Arlington'
p3946
aS'Joy'
p3947
aS'Horeb'
p3948
aS'Healthy'
p3949
aS'Kisco'
p3950
aS'Washington'
p3951
aS'Pleasant'
p3952
aS'Vernon'
p3953
aS'Dora'
p3954
aS'Rainier'
p3955
aS'Airy'
p3956
aS'Olive'
p3957
aS'Holly'
p3958
aS'Clemens'
p3959
aS'Ephraim'
p3960
aS'Carmel'
p3961
aS'Juliet'
p3962
atp3963
Rp3964
sS'Westmont'
p3965
g1
((lp3966
g6
atp3967
Rp3968
sS'Orlando'
p3969
g1
((lp3970
g6
atp3971
Rp3972
sS'Twinsburg'
p3973
g1
((lp3974
g6
atp3975
Rp3976
sS'Prineville'
p3977
g1
((lp3978
g6
atp3979
Rp3980
sS'Taylor'
p3981
g1
((lp3982
g6
aS'Mill'
p3983
atp3984
Rp3985
sS'Calabasas'
p3986
g1
((lp3987
g6
atp3988
Rp3989
sS'Guttenberg'
p3990
g1
((lp3991
g6
atp3992
Rp3993
sS'Westbrook'
p3994
g1
((lp3995
g6
atp3996
Rp3997
sS'Mound'
p3998
g1
((lp3999
g6
atp4000
Rp4001
sS'Genoa'
p4002
g1
((lp4003
g6
atp4004
Rp4005
sS'Opelika'
p4006
g1
((lp4007
g6
atp4008
Rp4009
sS'Blackwell'
p4010
g1
((lp4011
g6
atp4012
Rp4013
sS'Pickerington'
p4014
g1
((lp4015
g6
atp4016
Rp4017
sS'Glennville'
p4018
g1
((lp4019
g6
atp4020
Rp4021
sS'Rockaway'
p4022
g1
((lp4023
g6
atp4024
Rp4025
sS'Fredonia'
p4026
g1
((lp4027
g6
atp4028
Rp4029
sS'Glenn'
p4030
g1
((lp4031
S'Heights'
p4032
atp4033
Rp4034
sS'Lebanon'
p4035
g1
((lp4036
g6
atp4037
Rp4038
sS'Pacific'
p4039
g1
((lp4040
S'Grove'
p4041
ag6
atp4042
Rp4043
sS'Bath'
p4044
g1
((lp4045
g6
atp4046
Rp4047
sS'Roseville'
p4048
g1
((lp4049
g6
atp4050
Rp4051
sS'Pinetop-Lakeside'
p4052
g1
((lp4053
g6
atp4054
Rp4055
sS'Mandeville'
p4056
g1
((lp4057
g6
atp4058
Rp4059
sS'Safford'
p4060
g1
((lp4061
g6
atp4062
Rp4063
sS'Sharon'
p4064
g1
((lp4065
g6
aS'Hill'
p4066
atp4067
Rp4068
sS'Livermore'
p4069
g1
((lp4070
g6
atp4071
Rp4072
sS'Scottsbluff'
p4073
g1
((lp4074
g6
atp4075
Rp4076
sS'Herndon'
p4077
g1
((lp4078
g6
atp4079
Rp4080
sS'Federal'
p4081
g1
((lp4082
S'Way'
p4083
aS'Heights'
p4084
atp4085
Rp4086
sS'Media'
p4087
g1
((lp4088
g6
atp4089
Rp4090
sS'Sandusky'
p4091
g1
((lp4092
g6
atp4093
Rp4094
sS'Wheaton'
p4095
g1
((lp4096
g6
atp4097
Rp4098
sS'Plainfield'
p4099
g1
((lp4100
g6
atp4101
Rp4102
sS'Broadview'
p4103
g1
((lp4104
g6
aS'Heights'
p4105
atp4106
Rp4107
sS'Aliquippa'
p4108
g1
((lp4109
g6
atp4110
Rp4111
sS'Shawano'
p4112
g1
((lp4113
g6
atp4114
Rp4115
sS'Pilot'
p4116
g1
((lp4117
S'Point'
p4118
atp4119
Rp4120
sS'Chambersburg'
p4121
g1
((lp4122
g6
atp4123
Rp4124
sS'Coachella'
p4125
g1
((lp4126
g6
atp4127
Rp4128
sS'Glasgow'
p4129
g1
((lp4130
g6
atp4131
Rp4132
sS'Rexburg'
p4133
g1
((lp4134
g6
atp4135
Rp4136
sS'Youngsville'
p4137
g1
((lp4138
g6
atp4139
Rp4140
sS'Houma'
p4141
g1
((lp4142
g6
atp4143
Rp4144
sS'Carrollton'
p4145
g1
((lp4146
g6
atp4147
Rp4148
sS'Summerville'
p4149
g1
((lp4150
g6
atp4151
Rp4152
sS'Joliet'
p4153
g1
((lp4154
g6
atp4155
Rp4156
sS'Arkadelphia'
p4157
g1
((lp4158
g6
atp4159
Rp4160
sS'Alpharetta'
p4161
g1
((lp4162
g6
atp4163
Rp4164
sS'Smithville'
p4165
g1
((lp4166
g6
atp4167
Rp4168
sS'Sausalito'
p4169
g1
((lp4170
g6
atp4171
Rp4172
sS'Catasauqua'
p4173
g1
((lp4174
g6
atp4175
Rp4176
sS'Lochbuie'
p4177
g1
((lp4178
g6
atp4179
Rp4180
sS'Riverton'
p4181
g1
((lp4182
g6
atp4183
Rp4184
sS'Ponchatoula'
p4185
g1
((lp4186
g6
atp4187
Rp4188
sS'Briarcliff'
p4189
g1
((lp4190
S'Manor'
p4191
atp4192
Rp4193
sS'Hughson'
p4194
g1
((lp4195
g6
atp4196
Rp4197
sS'Lufkin'
p4198
g1
((lp4199
g6
atp4200
Rp4201
sS'Hartsville'
p4202
g1
((lp4203
g6
atp4204
Rp4205
sS'Hartland'
p4206
g1
((lp4207
g6
atp4208
Rp4209
sS'Glens'
p4210
g1
((lp4211
S'Falls'
p4212
atp4213
Rp4214
sS'Whiteville'
p4215
g1
((lp4216
g6
atp4217
Rp4218
sS'Ceres'
p4219
g1
((lp4220
g6
atp4221
Rp4222
sS'Lakewood'
p4223
g1
((lp4224
g6
atp4225
Rp4226
sS'Crookston'
p4227
g1
((lp4228
g6
atp4229
Rp4230
sS'Holtville'
p4231
g1
((lp4232
g6
atp4233
Rp4234
sS'Elko'
p4235
g1
((lp4236
g6
atp4237
Rp4238
sS'Coleman'
p4239
g1
((lp4240
g6
atp4241
Rp4242
sS'Bridgewater'
p4243
g1
((lp4244
g6
atp4245
Rp4246
sS'Janesville'
p4247
g1
((lp4248
g6
atp4249
Rp4250
sS'Euclid'
p4251
g1
((lp4252
g6
atp4253
Rp4254
sS'Turlock'
p4255
g1
((lp4256
g6
atp4257
Rp4258
sS'McKinney'
p4259
g1
((lp4260
g6
atp4261
Rp4262
sS'Northfield'
p4263
g1
((lp4264
g6
atp4265
Rp4266
sS'Bowie'
p4267
g1
((lp4268
g6
atp4269
Rp4270
sS'Wyoming'
p4271
g1
((lp4272
g6
atp4273
Rp4274
sS'Milltown'
p4275
g1
((lp4276
g6
atp4277
Rp4278
sS'Fairhope'
p4279
g1
((lp4280
g6
atp4281
Rp4282
sS'Covington'
p4283
g1
((lp4284
g6
atp4285
Rp4286
sS'Murphysboro'
p4287
g1
((lp4288
g6
atp4289
Rp4290
sS'Perth'
p4291
g1
((lp4292
S'Amboy'
p4293
atp4294
Rp4295
sS'Garwood'
p4296
g1
((lp4297
g6
atp4298
Rp4299
sS'White'
p4300
g1
((lp4301
S'House'
p4302
aS'Oak'
p4303
aS'Bear'
p4304
aS'Plains'
p4305
aS'Settlement'
p4306
aS'Hall'
p4307
atp4308
Rp4309
sS'Irvine'
p4310
g1
((lp4311
g6
atp4312
Rp4313
sS'Brookfield'
p4314
g1
((lp4315
g6
atp4316
Rp4317
sS'Waverly'
p4318
g1
((lp4319
g6
aS'City'
p4320
atp4321
Rp4322
sS'Lakemoor'
p4323
g1
((lp4324
g6
atp4325
Rp4326
sS'Chanute'
p4327
g1
((lp4328
g6
atp4329
Rp4330
sS'Zanesville'
p4331
g1
((lp4332
g6
atp4333
Rp4334
sS'Kirby'
p4335
g1
((lp4336
g6
atp4337
Rp4338
sS'Manitowoc'
p4339
g1
((lp4340
g6
atp4341
Rp4342
sS'Elm'
p4343
g1
((lp4344
S'Grove'
p4345
atp4346
Rp4347
sS'Escanaba'
p4348
g1
((lp4349
g6
atp4350
Rp4351
sS'Forney'
p4352
g1
((lp4353
g6
atp4354
Rp4355
sS'Kronenwetter'
p4356
g1
((lp4357
g6
atp4358
Rp4359
sS'Greeneville'
p4360
g1
((lp4361
g6
atp4362
Rp4363
sS'Wilkinsburg'
p4364
g1
((lp4365
g6
atp4366
Rp4367
sS'Lockhart'
p4368
g1
((lp4369
g6
atp4370
Rp4371
sS'Aliso'
p4372
g1
((lp4373
S'Viejo'
p4374
atp4375
Rp4376
sS'Jordan'
p4377
g1
((lp4378
g6
atp4379
Rp4380
sS'Avon'
p4381
g1
((lp4382
g6
aS'Park'
p4383
aS'Lake'
p4384
atp4385
Rp4386
sS'Mahtomedi'
p4387
g1
((lp4388
g6
atp4389
Rp4390
sS'Lenexa'
p4391
g1
((lp4392
g6
atp4393
Rp4394
sS'Harrodsburg'
p4395
g1
((lp4396
g6
atp4397
Rp4398
sS'Blythe'
p4399
g1
((lp4400
g6
atp4401
Rp4402
sS'Norfolk'
p4403
g1
((lp4404
g6
atp4405
Rp4406
sS'Eastpointe'
p4407
g1
((lp4408
g6
atp4409
Rp4410
sS'Beckley'
p4411
g1
((lp4412
g6
atp4413
Rp4414
sS'Ukiah'
p4415
g1
((lp4416
g6
atp4417
Rp4418
sS'Kyle'
p4419
g1
((lp4420
g6
atp4421
Rp4422
sS'Eureka'
p4423
g1
((lp4424
g6
atp4425
Rp4426
sS'Lindenhurst'
p4427
g1
((lp4428
g6
atp4429
Rp4430
sS'Rome'
p4431
g1
((lp4432
g6
atp4433
Rp4434
sS'Edwardsville'
p4435
g1
((lp4436
g6
atp4437
Rp4438
sS'Kenosha'
p4439
g1
((lp4440
g6
atp4441
Rp4442
sS'Roma'
p4443
g1
((lp4444
g6
atp4445
Rp4446
sS'Harrington'
p4447
g1
((lp4448
S'Park'
p4449
atp4450
Rp4451
sS'Webster'
p4452
g1
((lp4453
g6
aS'City'
p4454
aS'Groves'
p4455
atp4456
Rp4457
sS'Manasquan'
p4458
g1
((lp4459
g6
atp4460
Rp4461
sS'Sedro-Woolley'
p4462
g1
((lp4463
g6
atp4464
Rp4465
sS'Phillipsburg'
p4466
g1
((lp4467
g6
atp4468
Rp4469
sS'Pittsburg'
p4470
g1
((lp4471
g6
atp4472
Rp4473
sS'Cayce'
p4474
g1
((lp4475
g6
atp4476
Rp4477
sS'Glenview'
p4478
g1
((lp4479
g6
atp4480
Rp4481
sS'Grants'
p4482
g1
((lp4483
g6
aS'Pass'
p4484
atp4485
Rp4486
sS'Egg'
p4487
g1
((lp4488
S'Harbor'
p4489
atp4490
Rp4491
sS'Mill'
p4492
g1
((lp4493
S'Valley'
p4494
aS'Creek'
p4495
atp4496
Rp4497
sS'Gilroy'
p4498
g1
((lp4499
g6
atp4500
Rp4501
sS'Buchanan'
p4502
g1
((lp4503
g6
atp4504
Rp4505
sS'Helena-West'
p4506
g1
((lp4507
S'Helena'
p4508
atp4509
Rp4510
sS'Wesley'
p4511
g1
((lp4512
S'Hills'
p4513
atp4514
Rp4515
sS'Maricopa'
p4516
g1
((lp4517
g6
atp4518
Rp4519
sS'Pearland'
p4520
g1
((lp4521
g6
atp4522
Rp4523
sS'Kalispell'
p4524
g1
((lp4525
g6
atp4526
Rp4527
sS'Snyder'
p4528
g1
((lp4529
g6
atp4530
Rp4531
sS'Cookeville'
p4532
g1
((lp4533
g6
atp4534
Rp4535
sS'Fanwood'
p4536
g1
((lp4537
g6
atp4538
Rp4539
sS'Live'
p4540
g1
((lp4541
S'Oak'
p4542
atp4543
Rp4544
sS'Laurens'
p4545
g1
((lp4546
g6
atp4547
Rp4548
sS'Petersburg'
p4549
g1
((lp4550
g6
atp4551
Rp4552
sS'Arvin'
p4553
g1
((lp4554
g6
atp4555
Rp4556
sS'Rosemead'
p4557
g1
((lp4558
g6
atp4559
Rp4560
sS'Colusa'
p4561
g1
((lp4562
g6
atp4563
Rp4564
sS'Sedona'
p4565
g1
((lp4566
g6
atp4567
Rp4568
sS'Laredo'
p4569
g1
((lp4570
g6
atp4571
Rp4572
sS'Medical'
p4573
g1
((lp4574
S'Lake'
p4575
atp4576
Rp4577
sS'Satellite'
p4578
g1
((lp4579
S'Beach'
p4580
atp4581
Rp4582
sS'Pella'
p4583
g1
((lp4584
g6
atp4585
Rp4586
sS'Wheat'
p4587
g1
((lp4588
S'Ridge'
p4589
atp4590
Rp4591
sS'Elizabeth'
p4592
g1
((lp4593
g6
aS'City'
p4594
atp4595
Rp4596
sS'Gering'
p4597
g1
((lp4598
g6
atp4599
Rp4600
sS'Michigan'
p4601
g1
((lp4602
S'City'
p4603
atp4604
Rp4605
sS'Freehold'
p4606
g1
((lp4607
g6
atp4608
Rp4609
sS'Parlier'
p4610
g1
((lp4611
g6
atp4612
Rp4613
sS'Williamsport'
p4614
g1
((lp4615
g6
atp4616
Rp4617
sS'Tifton'
p4618
g1
((lp4619
g6
atp4620
Rp4621
sS'Key'
p4622
g1
((lp4623
S'West'
p4624
aS'Biscayne'
p4625
atp4626
Rp4627
sS'Ellettsville'
p4628
g1
((lp4629
g6
atp4630
Rp4631
sS'Euless'
p4632
g1
((lp4633
g6
atp4634
Rp4635
sS'Bloomingdale'
p4636
g1
((lp4637
g6
atp4638
Rp4639
sS'Commerce'
p4640
g1
((lp4641
g6
aS'City'
p4642
atp4643
Rp4644
sS'Stone'
p4645
g1
((lp4646
S'Mountain'
p4647
aS'Park'
p4648
atp4649
Rp4650
sS'Painesville'
p4651
g1
((lp4652
g6
atp4653
Rp4654
sS'Creston'
p4655
g1
((lp4656
g6
atp4657
Rp4658
sS'Clearlake'
p4659
g1
((lp4660
g6
atp4661
Rp4662
sS'Arcata'
p4663
g1
((lp4664
g6
atp4665
Rp4666
sS'Southlake'
p4667
g1
((lp4668
g6
atp4669
Rp4670
sS'Fenton'
p4671
g1
((lp4672
g6
atp4673
Rp4674
sS'Hinesville'
p4675
g1
((lp4676
g6
atp4677
Rp4678
sS'Westfield'
p4679
g1
((lp4680
g6
atp4681
Rp4682
sS'Marlin'
p4683
g1
((lp4684
g6
atp4685
Rp4686
sS'Altamonte'
p4687
g1
((lp4688
S'Springs'
p4689
atp4690
Rp4691
sS'Nitro'
p4692
g1
((lp4693
g6
atp4694
Rp4695
sS'Traverse'
p4696
g1
((lp4697
S'City'
p4698
atp4699
Rp4700
sS'Wilmore'
p4701
g1
((lp4702
g6
atp4703
Rp4704
sS'Ammon'
p4705
g1
((lp4706
g6
atp4707
Rp4708
sS'Cohoes'
p4709
g1
((lp4710
g6
atp4711
Rp4712
sS'Shelbyville'
p4713
g1
((lp4714
g6
atp4715
Rp4716
sS'Hermitage'
p4717
g1
((lp4718
g6
atp4719
Rp4720
sS'Boca'
p4721
g1
((lp4722
S'Raton'
p4723
atp4724
Rp4725
sS'Collinsville'
p4726
g1
((lp4727
g6
atp4728
Rp4729
sS'Layton'
p4730
g1
((lp4731
g6
atp4732
Rp4733
sS'Wauseon'
p4734
g1
((lp4735
g6
atp4736
Rp4737
sS'Delray'
p4738
g1
((lp4739
S'Beach'
p4740
atp4741
Rp4742
sS'Winder'
p4743
g1
((lp4744
g6
atp4745
Rp4746
sS'Fairlawn'
p4747
g1
((lp4748
g6
atp4749
Rp4750
sS'Yucaipa'
p4751
g1
((lp4752
g6
atp4753
Rp4754
sS'Huntington'
p4755
g1
((lp4756
g6
aS'Park'
p4757
aS'Woods'
p4758
aS'Beach'
p4759
atp4760
Rp4761
sS'Erie'
p4762
g1
((lp4763
g6
atp4764
Rp4765
sS'Longview'
p4766
g1
((lp4767
g6
atp4768
Rp4769
sS'Brazil'
p4770
g1
((lp4771
g6
atp4772
Rp4773
sS'Norwalk'
p4774
g1
((lp4775
g6
atp4776
Rp4777
sS'Sanford'
p4778
g1
((lp4779
g6
atp4780
Rp4781
sS'Ontario'
p4782
g1
((lp4783
g6
atp4784
Rp4785
sS'Ossining'
p4786
g1
((lp4787
g6
atp4788
Rp4789
sS'Royal'
p4790
g1
((lp4791
S'Palm'
p4792
aS'Oak'
p4793
atp4794
Rp4795
sS'Black'
p4796
g1
((lp4797
S'Mountain'
p4798
aS'Jack'
p4799
atp4800
Rp4801
sS'Dos'
p4802
g1
((lp4803
S'Palos'
p4804
atp4805
Rp4806
sS'Hollywood'
p4807
g1
((lp4808
g6
atp4809
Rp4810
sS'Glenpool'
p4811
g1
((lp4812
g6
atp4813
Rp4814
sS'Palos'
p4815
g1
((lp4816
S'Heights'
p4817
aS'Park'
p4818
aS'Hills'
p4819
aS'Verdes'
p4820
atp4821
Rp4822
sS'Diamond'
p4823
g1
((lp4824
S'Bar'
p4825
atp4826
Rp4827
sS'Posen'
p4828
g1
((lp4829
g6
atp4830
Rp4831
sS'Burlingame'
p4832
g1
((lp4833
g6
atp4834
Rp4835
sS'Hoffman'
p4836
g1
((lp4837
S'Estates'
p4838
atp4839
Rp4840
sS'Sparta'
p4841
g1
((lp4842
g6
atp4843
Rp4844
sS'Wharton'
p4845
g1
((lp4846
g6
atp4847
Rp4848
sS'Demarest'
p4849
g1
((lp4850
g6
atp4851
Rp4852
sS'Fairborn'
p4853
g1
((lp4854
g6
atp4855
Rp4856
sS'Satsuma'
p4857
g1
((lp4858
g6
atp4859
Rp4860
sS'Post'
p4861
g1
((lp4862
S'Falls'
p4863
atp4864
Rp4865
sS'Whitehouse'
p4866
g1
((lp4867
g6
atp4868
Rp4869
sS'Fortuna'
p4870
g1
((lp4871
g6
atp4872
Rp4873
sS'Orangeburg'
p4874
g1
((lp4875
g6
atp4876
Rp4877
sS'Havelock'
p4878
g1
((lp4879
g6
atp4880
Rp4881
sS'Litchfield'
p4882
g1
((lp4883
g6
aS'Park'
p4884
atp4885
Rp4886
sS'Pauls'
p4887
g1
((lp4888
S'Valley'
p4889
atp4890
Rp4891
sS'Hagerstown'
p4892
g1
((lp4893
g6
atp4894
Rp4895
sS'Slidell'
p4896
g1
((lp4897
g6
atp4898
Rp4899
sS'Miles'
p4900
g1
((lp4901
S'City'
p4902
atp4903
Rp4904
sS'Shippensburg'
p4905
g1
((lp4906
g6
atp4907
Rp4908
sS'Sharonville'
p4909
g1
((lp4910
g6
atp4911
Rp4912
sS'Enterprise'
p4913
g1
((lp4914
g6
atp4915
Rp4916
sS'Beverly'
p4917
g1
((lp4918
g6
aS'Hills'
p4919
atp4920
Rp4921
sS'Aiken'
p4922
g1
((lp4923
g6
atp4924
Rp4925
sS'Kalamazoo'
p4926
g1
((lp4927
g6
atp4928
Rp4929
sS'Shoreview'
p4930
g1
((lp4931
g6
atp4932
Rp4933
sS'Seven'
p4934
g1
((lp4935
S'Hills'
p4936
atp4937
Rp4938
sS'Colorado'
p4939
g1
((lp4940
S'Springs'
p4941
aS'City'
p4942
atp4943
Rp4944
sS'Tenafly'
p4945
g1
((lp4946
g6
atp4947
Rp4948
sS'Concord'
p4949
g1
((lp4950
g6
atp4951
Rp4952
sS'Mexico'
p4953
g1
((lp4954
g6
atp4955
Rp4956
sS'Stickney'
p4957
g1
((lp4958
g6
atp4959
Rp4960
sS'Streator'
p4961
g1
((lp4962
g6
atp4963
Rp4964
sS'Dolton'
p4965
g1
((lp4966
g6
atp4967
Rp4968
sS'Hendersonville'
p4969
g1
((lp4970
g6
atp4971
Rp4972
sS'Hurst'
p4973
g1
((lp4974
g6
atp4975
Rp4976
sS'Runnemede'
p4977
g1
((lp4978
g6
atp4979
Rp4980
sS'Kingsville'
p4981
g1
((lp4982
g6
atp4983
Rp4984
sS'Seminole'
p4985
g1
((lp4986
g6
atp4987
Rp4988
sS'Cherry'
p4989
g1
((lp4990
S'Hills'
p4991
atp4992
Rp4993
sS'Rittman'
p4994
g1
((lp4995
g6
atp4996
Rp4997
sS'Guadalupe'
p4998
g1
((lp4999
g6
atp5000
Rp5001
sS'Philadelphia'
p5002
g1
((lp5003
g6
atp5004
Rp5005
sS'Wasco'
p5006
g1
((lp5007
g6
atp5008
Rp5009
sS'Swissvale'
p5010
g1
((lp5011
g6
atp5012
Rp5013
sS'Chamblee'
p5014
g1
((lp5015
g6
atp5016
Rp5017
sS'Potsdam'
p5018
g1
((lp5019
g6
atp5020
Rp5021
sS'Atwater'
p5022
g1
((lp5023
g6
atp5024
Rp5025
sS'Valley'
p5026
g1
((lp5027
S'City'
p5028
aS'Park'
p5029
aS'Center'
p5030
aS'Stream'
p5031
atp5032
Rp5033
sS'Naples'
p5034
g1
((lp5035
g6
atp5036
Rp5037
sS'Torrance'
p5038
g1
((lp5039
g6
atp5040
Rp5041
sS'Rocky'
p5042
g1
((lp5043
S'Mount'
p5044
aS'River'
p5045
atp5046
Rp5047
sS'Gurnee'
p5048
g1
((lp5049
g6
atp5050
Rp5051
sS'Marshfield'
p5052
g1
((lp5053
g6
atp5054
Rp5055
sS'Mankato'
p5056
g1
((lp5057
g6
atp5058
Rp5059
sS'Yankton'
p5060
g1
((lp5061
g6
atp5062
Rp5063
sS'De'
p5064
g1
((lp5065
S'Witt'
p5066
aS'Land'
p5067
aS'Pere'
p5068
aS'Soto'
p5069
aS'Queen'
p5070
aS'Motte'
p5071
aS'Funiak'
p5072
atp5073
Rp5074
sS'Rockton'
p5075
g1
((lp5076
g6
atp5077
Rp5078
sS'Newberry'
p5079
g1
((lp5080
g6
atp5081
Rp5082
sS'Antioch'
p5083
g1
((lp5084
g6
atp5085
Rp5086
sS'Half'
p5087
g1
((lp5088
S'Moon'
p5089
atp5090
Rp5091
sS'Mebane'
p5092
g1
((lp5093
g6
atp5094
Rp5095
sS'Du'
p5096
g1
((lp5097
S'Quoin'
p5098
atp5099
Rp5100
sS'Marine'
p5101
g1
((lp5102
S'City'
p5103
atp5104
Rp5105
sS'Tamaqua'
p5106
g1
((lp5107
g6
atp5108
Rp5109
sS'Dellwood'
p5110
g1
((lp5111
g6
atp5112
Rp5113
sS'Ingleside'
p5114
g1
((lp5115
g6
atp5116
Rp5117
sS'Sycamore'
p5118
g1
((lp5119
g6
atp5120
Rp5121
sS'Gautier'
p5122
g1
((lp5123
g6
atp5124
Rp5125
sS'Boone'
p5126
g1
((lp5127
g6
atp5128
Rp5129
sS'Boonville'
p5130
g1
((lp5131
g6
atp5132
Rp5133
sS'Prescott'
p5134
g1
((lp5135
g6
aS'Valley'
p5136
atp5137
Rp5138
sS'Wisconsin'
p5139
g1
((lp5140
S'Rapids'
p5141
atp5142
Rp5143
sS'Hearne'
p5144
g1
((lp5145
g6
atp5146
Rp5147
sS'Hawaiian'
p5148
g1
((lp5149
S'Gardens'
p5150
atp5151
Rp5152
sS'Groveland'
p5153
g1
((lp5154
g6
atp5155
Rp5156
sS'Goldsboro'
p5157
g1
((lp5158
g6
atp5159
Rp5160
sS'Pflugerville'
p5161
g1
((lp5162
g6
atp5163
Rp5164
sS'Suffolk'
p5165
g1
((lp5166
g6
atp5167
Rp5168
sS'Elmira'
p5169
g1
((lp5170
g6
atp5171
Rp5172
sS'Wadesboro'
p5173
g1
((lp5174
g6
atp5175
Rp5176
sS'Bensenville'
p5177
g1
((lp5178
g6
atp5179
Rp5180
sS'Glenwood'
p5181
g1
((lp5182
g6
aS'Springs'
p5183
atp5184
Rp5185
sS'Saraland'
p5186
g1
((lp5187
g6
atp5188
Rp5189
sS'Sturtevant'
p5190
g1
((lp5191
g6
atp5192
Rp5193
sS'Amsterdam'
p5194
g1
((lp5195
g6
atp5196
Rp5197
sS'Menominee'
p5198
g1
((lp5199
g6
atp5200
Rp5201
sS'Dobbs'
p5202
g1
((lp5203
S'Ferry'
p5204
atp5205
Rp5206
sS'Clewiston'
p5207
g1
((lp5208
g6
atp5209
Rp5210
sS'Lincolnton'
p5211
g1
((lp5212
g6
atp5213
Rp5214
sS'Manitou'
p5215
g1
((lp5216
S'Springs'
p5217
atp5218
Rp5219
sS'Hummelstown'
p5220
g1
((lp5221
g6
atp5222
Rp5223
sS'Demopolis'
p5224
g1
((lp5225
g6
atp5226
Rp5227
sS'Poulsbo'
p5228
g1
((lp5229
g6
atp5230
Rp5231
sS'Moraga'
p5232
g1
((lp5233
g6
atp5234
Rp5235
sS'Glendora'
p5236
g1
((lp5237
g6
atp5238
Rp5239
sS'Ephrata'
p5240
g1
((lp5241
g6
atp5242
Rp5243
sS'Barre'
p5244
g1
((lp5245
g6
atp5246
Rp5247
sS'Kent'
p5248
g1
((lp5249
g6
atp5250
Rp5251
sS'Grenada'
p5252
g1
((lp5253
g6
atp5254
Rp5255
sS'Southwest'
p5256
g1
((lp5257
S'Ranches'
p5258
atp5259
Rp5260
sS'Ridgecrest'
p5261
g1
((lp5262
g6
atp5263
Rp5264
sS'Bellmead'
p5265
g1
((lp5266
g6
atp5267
Rp5268
sS'Sacramento'
p5269
g1
((lp5270
g6
atp5271
Rp5272
sS'Kansas'
p5273
g1
((lp5274
S'City'
p5275
atp5276
Rp5277
sS'Longboat'
p5278
g1
((lp5279
S'Key'
p5280
atp5281
Rp5282
sS'Lyndon'
p5283
g1
((lp5284
g6
atp5285
Rp5286
sS'Mulvane'
p5287
g1
((lp5288
g6
atp5289
Rp5290
sS'Haledon'
p5291
g1
((lp5292
g6
atp5293
Rp5294
sS'Floresville'
p5295
g1
((lp5296
g6
atp5297
Rp5298
sS'Lemoore'
p5299
g1
((lp5300
g6
atp5301
Rp5302
sS'Colonial'
p5303
g1
((lp5304
S'Heights'
p5305
atp5306
Rp5307
sS'Grambling'
p5308
g1
((lp5309
g6
atp5310
Rp5311
sS'Leeds'
p5312
g1
((lp5313
g6
atp5314
Rp5315
sS'Biloxi'
p5316
g1
((lp5317
g6
atp5318
Rp5319
sS'Redlands'
p5320
g1
((lp5321
g6
atp5322
Rp5323
sS'Manvel'
p5324
g1
((lp5325
g6
atp5326
Rp5327
sS'Tinton'
p5328
g1
((lp5329
S'Falls'
p5330
atp5331
Rp5332
sS'Paducah'
p5333
g1
((lp5334
g6
atp5335
Rp5336
sS'Seaside'
p5337
g1
((lp5338
g6
atp5339
Rp5340
sS'Lexington'
p5341
g1
((lp5342
g6
atp5343
Rp5344
sS'Olean'
p5345
g1
((lp5346
g6
atp5347
Rp5348
sS'Farmingdale'
p5349
g1
((lp5350
g6
atp5351
Rp5352
sS'Kaysville'
p5353
g1
((lp5354
g6
atp5355
Rp5356
sS'Largo'
p5357
g1
((lp5358
g6
atp5359
Rp5360
sS'Muscle'
p5361
g1
((lp5362
S'Shoals'
p5363
atp5364
Rp5365
sS'Midway'
p5366
g1
((lp5367
g6
atp5368
Rp5369
sS'Lackawanna'
p5370
g1
((lp5371
g6
atp5372
Rp5373
sS'Ville'
p5374
g1
((lp5375
S'Platte'
p5376
atp5377
Rp5378
sS'Alliance'
p5379
g1
((lp5380
g6
atp5381
Rp5382
sS'Villa'
p5383
g1
((lp5384
S'Park'
p5385
aS'Hills'
p5386
aS'Rica'
p5387
atp5388
Rp5389
sS'Oceanport'
p5390
g1
((lp5391
g6
atp5392
Rp5393
sS'Chippewa'
p5394
g1
((lp5395
S'Falls'
p5396
atp5397
Rp5398
sS'Tarentum'
p5399
g1
((lp5400
g6
atp5401
Rp5402
sS'Folsom'
p5403
g1
((lp5404
g6
atp5405
Rp5406
sS'Rossford'
p5407
g1
((lp5408
g6
atp5409
Rp5410
sS'Manchester'
p5411
g1
((lp5412
g6
atp5413
Rp5414
sS'Woodward'
p5415
g1
((lp5416
g6
atp5417
Rp5418
sS'Negaunee'
p5419
g1
((lp5420
g6
atp5421
Rp5422
sS'Allen'
p5423
g1
((lp5424
g6
aS'Park'
p5425
atp5426
Rp5427
sS'Bellwood'
p5428
g1
((lp5429
g6
atp5430
Rp5431
sS'Pawtucket'
p5432
g1
((lp5433
g6
atp5434
Rp5435
sS'Corrales'
p5436
g1
((lp5437
g6
atp5438
Rp5439
sS'Campton'
p5440
g1
((lp5441
S'Hills'
p5442
atp5443
Rp5444
sS'Fontana'
p5445
g1
((lp5446
g6
atp5447
Rp5448
sS'Leon'
p5449
g1
((lp5450
S'Valley'
p5451
atp5452
Rp5453
sS'Ashtabula'
p5454
g1
((lp5455
g6
atp5456
Rp5457
sS'Grand'
p5458
g1
((lp5459
S'Junction'
p5460
aS'Rapids'
p5461
aS'Island'
p5462
aS'Prairie'
p5463
aS'Terrace'
p5464
aS'Ledge'
p5465
aS'Forks'
p5466
aS'Haven'
p5467
aS'Blanc'
p5468
atp5469
Rp5470
sS'Winslow'
p5471
g1
((lp5472
g6
atp5473
Rp5474
sS'Babylon'
p5475
g1
((lp5476
g6
atp5477
Rp5478
sS'Chestnut'
p5479
g1
((lp5480
S'Ridge'
p5481
atp5482
Rp5483
sS'Cloverdale'
p5484
g1
((lp5485
g6
atp5486
Rp5487
sS'Southaven'
p5488
g1
((lp5489
g6
atp5490
Rp5491
sS'Iowa'
p5492
g1
((lp5493
S'City'
p5494
aS'Park'
p5495
aS'Falls'
p5496
atp5497
Rp5498
sS'Hempstead'
p5499
g1
((lp5500
g6
atp5501
Rp5502
sS'Ballston'
p5503
g1
((lp5504
S'Spa'
p5505
atp5506
Rp5507
sS'Rincon'
p5508
g1
((lp5509
g6
atp5510
Rp5511
sS'Lehighton'
p5512
g1
((lp5513
g6
atp5514
Rp5515
sS'Lititz'
p5516
g1
((lp5517
g6
atp5518
Rp5519
sS'Berlin'
p5520
g1
((lp5521
g6
atp5522
Rp5523
sS'Elmhurst'
p5524
g1
((lp5525
g6
atp5526
Rp5527
sS'Trinity'
p5528
g1
((lp5529
g6
atp5530
Rp5531
sS'Heber'
p5532
g1
((lp5533
g6
aS'Springs'
p5534
atp5535
Rp5536
sS'Tomball'
p5537
g1
((lp5538
g6
atp5539
Rp5540
sS'Petoskey'
p5541
g1
((lp5542
g6
atp5543
Rp5544
sS'Willmar'
p5545
g1
((lp5546
g6
atp5547
Rp5548
sS'Barnstable'
p5549
g1
((lp5550
S'Town'
p5551
atp5552
Rp5553
sS'Johnson'
p5554
g1
((lp5555
S'City'
p5556
atp5557
Rp5558
sS'Jessup'
p5559
g1
((lp5560
g6
atp5561
Rp5562
sS'Leonia'
p5563
g1
((lp5564
g6
atp5565
Rp5566
sS'Marco'
p5567
g1
((lp5568
S'Island'
p5569
atp5570
Rp5571
sS'Pinecrest'
p5572
g1
((lp5573
g6
atp5574
Rp5575
sS'Spearfish'
p5576
g1
((lp5577
g6
atp5578
Rp5579
sS'Dunellen'
p5580
g1
((lp5581
g6
atp5582
Rp5583
sS'Clanton'
p5584
g1
((lp5585
g6
atp5586
Rp5587
sS'Deming'
p5588
g1
((lp5589
g6
atp5590
Rp5591
sS'Fostoria'
p5592
g1
((lp5593
g6
atp5594
Rp5595
sS'Orinda'
p5596
g1
((lp5597
g6
atp5598
Rp5599
sS'Moraine'
p5600
g1
((lp5601
g6
atp5602
Rp5603
sS'Mesquite'
p5604
g1
((lp5605
g6
atp5606
Rp5607
sS'Cornelius'
p5608
g1
((lp5609
g6
atp5610
Rp5611
sS'Barberton'
p5612
g1
((lp5613
g6
atp5614
Rp5615
sS'Tucumcari'
p5616
g1
((lp5617
g6
atp5618
Rp5619
sS'Ranson'
p5620
g1
((lp5621
S'corporation'
p5622
atp5623
Rp5624
sS'Eudora'
p5625
g1
((lp5626
g6
atp5627
Rp5628
sS'Williamsville'
p5629
g1
((lp5630
g6
atp5631
Rp5632
sS'Fairbanks'
p5633
g1
((lp5634
g6
atp5635
Rp5636
sS'Delaware'
p5637
g1
((lp5638
g6
atp5639
Rp5640
sS'Bogalusa'
p5641
g1
((lp5642
g6
atp5643
Rp5644
sS'Emerson'
p5645
g1
((lp5646
g6
atp5647
Rp5648
sS'Sherwood'
p5649
g1
((lp5650
g6
atp5651
Rp5652
sS'Latrobe'
p5653
g1
((lp5654
g6
atp5655
Rp5656
sS'Pearl'
p5657
g1
((lp5658
g6
atp5659
Rp5660
sS'Hubbard'
p5661
g1
((lp5662
g6
atp5663
Rp5664
sS'Hazleton'
p5665
g1
((lp5666
g6
atp5667
Rp5668
sS'Riverside'
p5669
g1
((lp5670
g6
atp5671
Rp5672
sS'Midwest'
p5673
g1
((lp5674
S'City'
p5675
atp5676
Rp5677
sS'Brawley'
p5678
g1
((lp5679
g6
atp5680
Rp5681
sS'Pepper'
p5682
g1
((lp5683
S'Pike'
p5684
atp5685
Rp5686
sS'Hokes'
p5687
g1
((lp5688
S'Bluff'
p5689
atp5690
Rp5691
sS'Stoughton'
p5692
g1
((lp5693
g6
atp5694
Rp5695
sS'Somersworth'
p5696
g1
((lp5697
g6
atp5698
Rp5699
sS'Oconto'
p5700
g1
((lp5701
g6
atp5702
Rp5703
sS'Winona'
p5704
g1
((lp5705
g6
atp5706
Rp5707
sS'Littleton'
p5708
g1
((lp5709
g6
atp5710
Rp5711
sS'Southside'
p5712
g1
((lp5713
g6
atp5714
Rp5715
sS'Depew'
p5716
g1
((lp5717
g6
atp5718
Rp5719
sS'Millbrae'
p5720
g1
((lp5721
g6
atp5722
Rp5723
sS'Pensacola'
p5724
g1
((lp5725
g6
atp5726
Rp5727
sS'Rawlins'
p5728
g1
((lp5729
g6
atp5730
Rp5731
sS'Leominster'
p5732
g1
((lp5733
g6
atp5734
Rp5735
sS'Massillon'
p5736
g1
((lp5737
g6
atp5738
Rp5739
sS'Puyallup'
p5740
g1
((lp5741
g6
atp5742
Rp5743
sS'Pompton'
p5744
g1
((lp5745
S'Lakes'
p5746
atp5747
Rp5748
sS'Davenport'
p5749
g1
((lp5750
g6
atp5751
Rp5752
sS'Round'
p5753
g1
((lp5754
S'Lake'
p5755
aS'Rock'
p5756
atp5757
Rp5758
sS'Hermantown'
p5759
g1
((lp5760
g6
atp5761
Rp5762
sS'Ironton'
p5763
g1
((lp5764
g6
atp5765
Rp5766
sS'Wood-Ridge'
p5767
g1
((lp5768
g6
atp5769
Rp5770
sS'Clementon'
p5771
g1
((lp5772
g6
atp5773
Rp5774
sS'Atmore'
p5775
g1
((lp5776
g6
atp5777
Rp5778
sS'Deltona'
p5779
g1
((lp5780
g6
atp5781
Rp5782
sS'Merced'
p5783
g1
((lp5784
g6
atp5785
Rp5786
sS'Suwanee'
p5787
g1
((lp5788
g6
atp5789
Rp5790
sS'Bartonville'
p5791
g1
((lp5792
g6
atp5793
Rp5794
sS'Diboll'
p5795
g1
((lp5796
g6
atp5797
Rp5798
sS'Larksville'
p5799
g1
((lp5800
g6
atp5801
Rp5802
sS'Edgewater'
p5803
g1
((lp5804
g6
atp5805
Rp5806
sS'Kennett'
p5807
g1
((lp5808
g6
aS'Square'
p5809
atp5810
Rp5811
sS'Moody'
p5812
g1
((lp5813
g6
atp5814
Rp5815
sS'Mercer'
p5816
g1
((lp5817
S'Island'
p5818
atp5819
Rp5820
sS'Allouez'
p5821
g1
((lp5822
g6
atp5823
Rp5824
sS'Venice'
p5825
g1
((lp5826
g6
atp5827
Rp5828
sS'Cumberland'
p5829
g1
((lp5830
g6
atp5831
Rp5832
sS'Ravenna'
p5833
g1
((lp5834
g6
atp5835
Rp5836
sS'Kinston'
p5837
g1
((lp5838
g6
atp5839
Rp5840
sS'Murrieta'
p5841
g1
((lp5842
g6
atp5843
Rp5844
sS'Alsip'
p5845
g1
((lp5846
g6
atp5847
Rp5848
sS'Hackensack'
p5849
g1
((lp5850
g6
atp5851
Rp5852
sS'Ellsworth'
p5853
g1
((lp5854
g6
atp5855
Rp5856
sS'Wood'
p5857
g1
((lp5858
S'Dale'
p5859
aS'River'
p5860
atp5861
Rp5862
sS'Destin'
p5863
g1
((lp5864
g6
atp5865
Rp5866
sS'Chandler'
p5867
g1
((lp5868
g6
atp5869
Rp5870
sS'Montevideo'
p5871
g1
((lp5872
g6
atp5873
Rp5874
sS'Elsmere'
p5875
g1
((lp5876
g6
atp5877
Rp5878
sS'Plant'
p5879
g1
((lp5880
S'City'
p5881
atp5882
Rp5883
sS'Warrenville'
p5884
g1
((lp5885
g6
atp5886
Rp5887
sS'Nashville'
p5888
g1
((lp5889
g6
atp5890
Rp5891
sS'Amarillo'
p5892
g1
((lp5893
g6
atp5894
Rp5895
sS'Martinsville'
p5896
g1
((lp5897
g6
atp5898
Rp5899
sS'Decorah'
p5900
g1
((lp5901
g6
atp5902
Rp5903
sS'Muskegon'
p5904
g1
((lp5905
g6
aS'Heights'
p5906
atp5907
Rp5908
sS'Plano'
p5909
g1
((lp5910
g6
atp5911
Rp5912
sS'Carol'
p5913
g1
((lp5914
S'Stream'
p5915
atp5916
Rp5917
sS'Beaverton'
p5918
g1
((lp5919
g6
atp5920
Rp5921
sS'Silver'
p5922
g1
((lp5923
S'City'
p5924
atp5925
Rp5926
sS'Wytheville'
p5927
g1
((lp5928
g6
atp5929
Rp5930
sS'Tonganoxie'
p5931
g1
((lp5932
g6
atp5933
Rp5934
sS'Brewton'
p5935
g1
((lp5936
g6
atp5937
Rp5938
sS'Palmerton'
p5939
g1
((lp5940
g6
atp5941
Rp5942
sS'Anchorage'
p5943
g1
((lp5944
g6
atp5945
Rp5946
sS'Signal'
p5947
g1
((lp5948
S'Mountain'
p5949
aS'Hill'
p5950
atp5951
Rp5952
sS'Canastota'
p5953
g1
((lp5954
g6
atp5955
Rp5956
sS'Richton'
p5957
g1
((lp5958
S'Park'
p5959
atp5960
Rp5961
sS'Mammoth'
p5962
g1
((lp5963
S'Lakes'
p5964
atp5965
Rp5966
sS'Iron'
p5967
g1
((lp5968
S'Mountain'
p5969
atp5970
Rp5971
sS'Helotes'
p5972
g1
((lp5973
g6
atp5974
Rp5975
sS'Rialto'
p5976
g1
((lp5977
g6
atp5978
Rp5979
sS'Carlstadt'
p5980
g1
((lp5981
g6
atp5982
Rp5983
sS'Hampton'
p5984
g1
((lp5985
g6
atp5986
Rp5987
sS'Fairport'
p5988
g1
((lp5989
g6
atp5990
Rp5991
sS'Whiting'
p5992
g1
((lp5993
g6
atp5994
Rp5995
sS'Bogota'
p5996
g1
((lp5997
g6
atp5998
Rp5999
sS'Reno'
p6000
g1
((lp6001
g6
atp6002
Rp6003
sS'Struthers'
p6004
g1
((lp6005
g6
atp6006
Rp6007
sS'Tillamook'
p6008
g1
((lp6009
g6
atp6010
Rp6011
sS'Milwaukee'
p6012
g1
((lp6013
g6
atp6014
Rp6015
sS'Williston'
p6016
g1
((lp6017
g6
aS'Park'
p6018
atp6019
Rp6020
sS'Scappoose'
p6021
g1
((lp6022
g6
atp6023
Rp6024
sS'Port'
p6025
g1
((lp6026
S'Lavaca'
p6027
aS'Clinton'
p6028
aS'Orchard'
p6029
aS'Royal'
p6030
aS'Washington'
p6031
aS'St.'
p6032
aS'Hueneme'
p6033
aS'Angeles'
p6034
aS'Arthur'
p6035
aS'Jefferson'
p6036
aS'Chester'
p6037
aS'Isabel'
p6038
aS'Jervis'
p6039
aS'Orange'
p6040
aS'Allen'
p6041
aS'Huron'
p6042
aS'Neches'
p6043
aS'Townsend'
p6044
aS'Wentworth'
p6045
atp6046
Rp6047
sS'Mendham'
p6048
g1
((lp6049
g6
atp6050
Rp6051
sS'Richland'
p6052
g1
((lp6053
g6
aS'Hills'
p6054
aS'Center'
p6055
atp6056
Rp6057
sS'Woodland'
p6058
g1
((lp6059
g6
aS'Park'
p6060
atp6061
Rp6062
sS'Provo'
p6063
g1
((lp6064
g6
atp6065
Rp6066
sS'Pine'
p6067
g1
((lp6068
S'Hill'
p6069
aS'Bluff'
p6070
atp6071
Rp6072
sS'Tamarac'
p6073
g1
((lp6074
g6
atp6075
Rp6076
sS'Charleroi'
p6077
g1
((lp6078
g6
atp6079
Rp6080
sS'Colby'
p6081
g1
((lp6082
g6
atp6083
Rp6084
sS'Spartanburg'
p6085
g1
((lp6086
g6
atp6087
Rp6088
sS'Honesdale'
p6089
g1
((lp6090
g6
atp6091
Rp6092
sS'Marana'
p6093
g1
((lp6094
g6
atp6095
Rp6096
sS'Lombard'
p6097
g1
((lp6098
g6
atp6099
Rp6100
sS'Sandwich'
p6101
g1
((lp6102
g6
atp6103
Rp6104
sS'Solana'
p6105
g1
((lp6106
S'Beach'
p6107
atp6108
Rp6109
sS'Kirkwood'
p6110
g1
((lp6111
g6
atp6112
Rp6113
sS'Marysville'
p6114
g1
((lp6115
g6
atp6116
Rp6117
sS'Newcastle'
p6118
g1
((lp6119
g6
atp6120
Rp6121
sS'Olive'
p6122
g1
((lp6123
S'Branch'
p6124
atp6125
Rp6126
sS'Moundsville'
p6127
g1
((lp6128
g6
atp6129
Rp6130
sS'Palmdale'
p6131
g1
((lp6132
g6
atp6133
Rp6134
sS'Streetsboro'
p6135
g1
((lp6136
g6
atp6137
Rp6138
sS'Oconomowoc'
p6139
g1
((lp6140
g6
atp6141
Rp6142
sS'Clairton'
p6143
g1
((lp6144
g6
atp6145
Rp6146
sS'Saratoga'
p6147
g1
((lp6148
g6
aS'Springs'
p6149
atp6150
Rp6151
sS'Island'
p6152
g1
((lp6153
S'Park'
p6154
aS'Lake'
p6155
atp6156
Rp6157
sS'DeForest'
p6158
g1
((lp6159
g6
atp6160
Rp6161
sS'Camp'
p6162
g1
((lp6163
S'Verde'
p6164
aS'Hill'
p6165
atp6166
Rp6167
sS'Coconut'
p6168
g1
((lp6169
S'Creek'
p6170
atp6171
Rp6172
sS'Cherryville'
p6173
g1
((lp6174
g6
atp6175
Rp6176
sS'Ridgeland'
p6177
g1
((lp6178
g6
atp6179
Rp6180
sS'Waconia'
p6181
g1
((lp6182
g6
atp6183
Rp6184
sS'Plainview'
p6185
g1
((lp6186
g6
atp6187
Rp6188
sS'Chariton'
p6189
g1
((lp6190
g6
atp6191
Rp6192
sS'Sykesville'
p6193
g1
((lp6194
g6
atp6195
Rp6196
sS'Bellingham'
p6197
g1
((lp6198
g6
atp6199
Rp6200
sS'McComb'
p6201
g1
((lp6202
g6
atp6203
Rp6204
sS'Show'
p6205
g1
((lp6206
S'Low'
p6207
atp6208
Rp6209
sS'Palmer'
p6210
g1
((lp6211
g6
atp6212
Rp6213
sS'Belmont'
p6214
g1
((lp6215
g6
atp6216
Rp6217
sS'Bloomfield'
p6218
g1
((lp6219
g6
atp6220
Rp6221
sS'Sylvania'
p6222
g1
((lp6223
g6
atp6224
Rp6225
sS'Troy'
p6226
g1
((lp6227
g6
atp6228
Rp6229
sS'London'
p6230
g1
((lp6231
g6
atp6232
Rp6233
sS'Olivette'
p6234
g1
((lp6235
g6
atp6236
Rp6237
sS'Globe'
p6238
g1
((lp6239
g6
atp6240
Rp6241
sS'Enid'
p6242
g1
((lp6243
g6
atp6244
Rp6245
sS'Greenacres'
p6246
g1
((lp6247
g6
atp6248
Rp6249
sS'Perry'
p6250
g1
((lp6251
g6
atp6252
Rp6253
sS'Santee'
p6254
g1
((lp6255
g6
atp6256
Rp6257
sS'Poquoson'
p6258
g1
((lp6259
g6
atp6260
Rp6261
sS'West'
p6262
g1
((lp6263
S'Richland'
p6264
aS'Frankfort'
p6265
aS'Chicago'
p6266
aS'St.'
p6267
aS'Long'
p6268
aS'Dundee'
p6269
aS'Plains'
p6270
aS'Paterson'
p6271
aS'Fargo'
p6272
aS'New'
p6273
aS'Hollywood'
p6274
aS'Valley'
p6275
aS'Springfield'
p6276
aS'Columbia'
p6277
aS'Sacramento'
p6278
aS'Peoria'
p6279
aS'Pittston'
p6280
aS'Park'
p6281
aS'Linn'
p6282
aS'Jordan'
p6283
aS'Carrollton'
p6284
aS'Memphis'
p6285
aS'Haven'
p6286
aS'Milton'
p6287
aS'Miami'
p6288
aS'University'
p6289
aS'Des'
p6290
aS'Melbourne'
p6291
aS'Haverstraw'
p6292
aS'Lafayette'
p6293
aS'Chester'
p6294
aS'View'
p6295
aS'Wendover'
p6296
aS'Covina'
p6297
aS'Point'
p6298
aS'Allis'
p6299
aS'Bountiful'
p6300
aS'Mifflin'
p6301
aS'Salem'
p6302
aS'Palm'
p6303
aS'Bend'
p6304
aS'Monroe'
p6305
atp6306
Rp6307
sS'Patchogue'
p6308
g1
((lp6309
g6
atp6310
Rp6311
sS'Greensburg'
p6312
g1
((lp6313
g6
atp6314
Rp6315
sS'Northvale'
p6316
g1
((lp6317
g6
atp6318
Rp6319
sS'Coralville'
p6320
g1
((lp6321
g6
atp6322
Rp6323
sS'Madera'
p6324
g1
((lp6325
g6
atp6326
Rp6327
sS'Alfred'
p6328
g1
((lp6329
g6
atp6330
Rp6331
sS'Baytown'
p6332
g1
((lp6333
g6
atp6334
Rp6335
sS'New'
p6336
g1
((lp6337
S'Orleans'
p6338
aS'Paltz'
p6339
aS'Lenox'
p6340
aS'Albany'
p6341
aS'Braunfels'
p6342
aS'Kensington'
p6343
aS'Philadelphia'
p6344
aS'Richmond'
p6345
aS'Providence'
p6346
aS'Rochelle'
p6347
aS'Brunswick'
p6348
aS'Hope'
p6349
aS'Cumberland'
p6350
aS'Milford'
p6351
aS'Hempstead'
p6352
aS'Berlin'
p6353
aS'Carrollton'
p6354
aS'York'
p6355
aS'Hyde'
p6356
aS'Bern'
p6357
aS'Haven'
p6358
aS'Brighton'
p6359
aS'Bedford'
p6360
aS'Iberia'
p6361
aS'Whiteland'
p6362
aS'Martinsville'
p6363
aS'Lexington'
p6364
aS'Franklin'
p6365
aS'Ulm'
p6366
aS'Castle'
p6367
aS'Baltimore'
p6368
aS'Square'
p6369
aS'Boston'
p6370
aS'Prague'
p6371
aS'Smyrna'
p6372
aS'Holland'
p6373
aS'Britain'
p6374
aS'London'
p6375
aS'Roads'
p6376
aS'Port'
p6377
aS'Carlisle'
p6378
atp6379
Rp6380
sS'Swansea'
p6381
g1
((lp6382
g6
atp6383
Rp6384
sS'Chillicothe'
p6385
g1
((lp6386
g6
atp6387
Rp6388
sS'Waxahachie'
p6389
g1
((lp6390
g6
atp6391
Rp6392
sS'Douglass'
p6393
g1
((lp6394
S'Hills'
p6395
atp6396
Rp6397
sS'Tuckahoe'
p6398
g1
((lp6399
g6
atp6400
Rp6401
sS'Benicia'
p6402
g1
((lp6403
g6
atp6404
Rp6405
sS'Kenton'
p6406
g1
((lp6407
g6
atp6408
Rp6409
sS'Brentwood'
p6410
g1
((lp6411
g6
atp6412
Rp6413
sS'Ruidoso'
p6414
g1
((lp6415
g6
atp6416
Rp6417
sS'Yakima'
p6418
g1
((lp6419
g6
atp6420
Rp6421
sS'Bourbonnais'
p6422
g1
((lp6423
g6
atp6424
Rp6425
sS'Bridgeview'
p6426
g1
((lp6427
g6
atp6428
Rp6429
sS'Wake'
p6430
g1
((lp6431
S'Forest'
p6432
aS'Village'
p6433
atp6434
Rp6435
sS'Monroeville'
p6436
g1
((lp6437
g6
atp6438
Rp6439
sS'Chisholm'
p6440
g1
((lp6441
g6
atp6442
Rp6443
sS'Sonora'
p6444
g1
((lp6445
g6
atp6446
Rp6447
sS'Robertsdale'
p6448
g1
((lp6449
g6
atp6450
Rp6451
sS'Spokane'
p6452
g1
((lp6453
g6
aS'Valley'
p6454
atp6455
Rp6456
sS'Surfside'
p6457
g1
((lp6458
g6
aS'Beach'
p6459
atp6460
Rp6461
sS'Giddings'
p6462
g1
((lp6463
g6
atp6464
Rp6465
sS'Wilmington'
p6466
g1
((lp6467
g6
atp6468
Rp6469
sS'Rutherford'
p6470
g1
((lp6471
g6
atp6472
Rp6473
sS'Seabrook'
p6474
g1
((lp6475
g6
atp6476
Rp6477
sS'Monrovia'
p6478
g1
((lp6479
g6
atp6480
Rp6481
sS'Ripley'
p6482
g1
((lp6483
g6
atp6484
Rp6485
sS'Maitland'
p6486
g1
((lp6487
g6
atp6488
Rp6489
sS'Radford'
p6490
g1
((lp6491
g6
atp6492
Rp6493
sS'Forsyth'
p6494
g1
((lp6495
g6
atp6496
Rp6497
sS'Rock'
p6498
g1
((lp6499
S'Island'
p6500
aS'Falls'
p6501
aS'Hill'
p6502
aS'Springs'
p6503
atp6504
Rp6505
sS'Seaford'
p6506
g1
((lp6507
g6
atp6508
Rp6509
sS'Pikeville'
p6510
g1
((lp6511
g6
atp6512
Rp6513
sS'Tremonton'
p6514
g1
((lp6515
g6
atp6516
Rp6517
sS'Albertville'
p6518
g1
((lp6519
g6
atp6520
Rp6521
sS'Taos'
p6522
g1
((lp6523
g6
atp6524
Rp6525
sS'Seneca'
p6526
g1
((lp6527
g6
aS'Falls'
p6528
atp6529
Rp6530
sS'Geneseo'
p6531
g1
((lp6532
g6
atp6533
Rp6534
sS'Overland'
p6535
g1
((lp6536
g6
aS'Park'
p6537
atp6538
Rp6539
sS'Sturgeon'
p6540
g1
((lp6541
S'Bay'
p6542
atp6543
Rp6544
sS'Moline'
p6545
g1
((lp6546
g6
atp6547
Rp6548
sS'Larchmont'
p6549
g1
((lp6550
g6
atp6551
Rp6552
sS'Ashwaubenon'
p6553
g1
((lp6554
g6
atp6555
Rp6556
sS'Agoura'
p6557
g1
((lp6558
S'Hills'
p6559
atp6560
Rp6561
sS'Wellston'
p6562
g1
((lp6563
g6
atp6564
Rp6565
sS'Huntersville'
p6566
g1
((lp6567
g6
atp6568
Rp6569
sS'Rainbow'
p6570
g1
((lp6571
S'City'
p6572
atp6573
Rp6574
sS'Coatesville'
p6575
g1
((lp6576
g6
atp6577
Rp6578
sS'Brigham'
p6579
g1
((lp6580
S'City'
p6581
atp6582
Rp6583
sS'Cerritos'
p6584
g1
((lp6585
g6
atp6586
Rp6587
sS'Lovington'
p6588
g1
((lp6589
g6
atp6590
Rp6591
sS'Rockmart'
p6592
g1
((lp6593
g6
atp6594
Rp6595
sS'Arkansas'
p6596
g1
((lp6597
S'City'
p6598
atp6599
Rp6600
sS'Lewistown'
p6601
g1
((lp6602
g6
atp6603
Rp6604
sS'Storm'
p6605
g1
((lp6606
S'Lake'
p6607
atp6608
Rp6609
sS'Ada'
p6610
g1
((lp6611
g6
atp6612
Rp6613
sS'Flagler'
p6614
g1
((lp6615
S'Beach'
p6616
atp6617
Rp6618
sS'Issaquah'
p6619
g1
((lp6620
g6
atp6621
Rp6622
sS'Festus'
p6623
g1
((lp6624
g6
atp6625
Rp6626
sS'Macclenny'
p6627
g1
((lp6628
g6
atp6629
Rp6630
sS'Waupun'
p6631
g1
((lp6632
g6
atp6633
Rp6634
sS'Silverton'
p6635
g1
((lp6636
g6
atp6637
Rp6638
sS'Cibolo'
p6639
g1
((lp6640
g6
atp6641
Rp6642
sS'Asheville'
p6643
g1
((lp6644
g6
atp6645
Rp6646
sS'Gladewater'
p6647
g1
((lp6648
g6
atp6649
Rp6650
sS'Baton'
p6651
g1
((lp6652
S'Rouge'
p6653
atp6654
Rp6655
sS'Kendallville'
p6656
g1
((lp6657
g6
atp6658
Rp6659
sS'Ardsley'
p6660
g1
((lp6661
g6
atp6662
Rp6663
sS'Binghamton'
p6664
g1
((lp6665
g6
atp6666
Rp6667
sS'Rogersville'
p6668
g1
((lp6669
g6
atp6670
Rp6671
sS'Airway'
p6672
g1
((lp6673
S'Heights'
p6674
atp6675
Rp6676
sS'Bartlett'
p6677
g1
((lp6678
g6
atp6679
Rp6680
sS'Olathe'
p6681
g1
((lp6682
g6
atp6683
Rp6684
sS'Vacaville'
p6685
g1
((lp6686
g6
atp6687
Rp6688
sS'Englewood'
p6689
g1
((lp6690
g6
aS'Cliffs'
p6691
atp6692
Rp6693
sS'Rantoul'
p6694
g1
((lp6695
g6
atp6696
Rp6697
sS'Artesia'
p6698
g1
((lp6699
g6
atp6700
Rp6701
sS"D'Iberville"
p6702
g1
((lp6703
g6
atp6704
Rp6705
sS'Brownwood'
p6706
g1
((lp6707
g6
atp6708
Rp6709
sS'Kaser'
p6710
g1
((lp6711
g6
atp6712
Rp6713
sS'Walker'
p6714
g1
((lp6715
g6
atp6716
Rp6717
sS'Johnston'
p6718
g1
((lp6719
g6
atp6720
Rp6721
sS'Castle'
p6722
g1
((lp6723
S'Shannon'
p6724
aS'Rock'
p6725
atp6726
Rp6727
sS'Southgate'
p6728
g1
((lp6729
g6
atp6730
Rp6731
sS'Willowick'
p6732
g1
((lp6733
g6
atp6734
Rp6735
sS'Greensboro'
p6736
g1
((lp6737
g6
atp6738
Rp6739
sS'Osage'
p6740
g1
((lp6741
S'Beach'
p6742
atp6743
Rp6744
sS'Stockton'
p6745
g1
((lp6746
g6
atp6747
Rp6748
sS'Hales'
p6749
g1
((lp6750
S'Corners'
p6751
atp6752
Rp6753
sS'Collegeville'
p6754
g1
((lp6755
g6
atp6756
Rp6757
sS'Boaz'
p6758
g1
((lp6759
g6
atp6760
Rp6761
sS'Yeadon'
p6762
g1
((lp6763
g6
atp6764
Rp6765
sS'Twin'
p6766
g1
((lp6767
S'Lakes'
p6768
aS'Falls'
p6769
atp6770
Rp6771
sS'Hapeville'
p6772
g1
((lp6773
g6
atp6774
Rp6775
sS'Berea'
p6776
g1
((lp6777
g6
atp6778
Rp6779
sS'Cushing'
p6780
g1
((lp6781
g6
atp6782
Rp6783
sS'Bentonville'
p6784
g1
((lp6785
g6
atp6786
Rp6787
sS'Leesville'
p6788
g1
((lp6789
g6
atp6790
Rp6791
sS'Lancaster'
p6792
g1
((lp6793
g6
atp6794
Rp6795
sS'Charles'
p6796
g1
((lp6797
S'Town'
p6798
aS'City'
p6799
atp6800
Rp6801
sS'Trumann'
p6802
g1
((lp6803
g6
atp6804
Rp6805
sS'Farmers'
p6806
g1
((lp6807
S'Branch'
p6808
atp6809
Rp6810
sS'Yonkers'
p6811
g1
((lp6812
g6
atp6813
Rp6814
sS'Granville'
p6815
g1
((lp6816
g6
atp6817
Rp6818
sS'Morehead'
p6819
g1
((lp6820
g6
aS'City'
p6821
atp6822
Rp6823
sS'Price'
p6824
g1
((lp6825
g6
atp6826
Rp6827
sS'Kernersville'
p6828
g1
((lp6829
g6
atp6830
Rp6831
sS'Hot'
p6832
g1
((lp6833
S'Springs'
p6834
atp6835
Rp6836
sS'Camilla'
p6837
g1
((lp6838
g6
atp6839
Rp6840
sS'Stockbridge'
p6841
g1
((lp6842
g6
atp6843
Rp6844
sS'Granite'
p6845
g1
((lp6846
S'City'
p6847
aS'Falls'
p6848
atp6849
Rp6850
sS'Gatesville'
p6851
g1
((lp6852
g6
atp6853
Rp6854
sS'Springfield'
p6855
g1
((lp6856
g6
atp6857
Rp6858
sS'Pearsall'
p6859
g1
((lp6860
g6
atp6861
Rp6862
sS'Watseka'
p6863
g1
((lp6864
g6
atp6865
Rp6866
sS'Garland'
p6867
g1
((lp6868
g6
atp6869
Rp6870
sS'Neenah'
p6871
g1
((lp6872
g6
atp6873
Rp6874
sS'Gilmer'
p6875
g1
((lp6876
g6
atp6877
Rp6878
sS'Pontoon'
p6879
g1
((lp6880
S'Beach'
p6881
atp6882
Rp6883
sS'Avalon'
p6884
g1
((lp6885
g6
atp6886
Rp6887
sS'Woodburn'
p6888
g1
((lp6889
g6
atp6890
Rp6891
sS'Atlantic'
p6892
g1
((lp6893
g6
aS'City'
p6894
aS'Highlands'
p6895
aS'Beach'
p6896
atp6897
Rp6898
sS'Centralia'
p6899
g1
((lp6900
g6
atp6901
Rp6902
sS'Scott'
p6903
g1
((lp6904
g6
aS'City'
p6905
atp6906
Rp6907
sS'Malvern'
p6908
g1
((lp6909
g6
atp6910
Rp6911
sS'Lady'
p6912
g1
((lp6913
S'Lake'
p6914
atp6915
Rp6916
sS'Tarpon'
p6917
g1
((lp6918
S'Springs'
p6919
atp6920
Rp6921
sS'Johnstown'
p6922
g1
((lp6923
g6
atp6924
Rp6925
sS'Great'
p6926
g1
((lp6927
S'Bend'
p6928
aS'Neck'
p6929
aS'Falls'
p6930
atp6931
Rp6932
sS'Robstown'
p6933
g1
((lp6934
g6
atp6935
Rp6936
sS'Omaha'
p6937
g1
((lp6938
g6
atp6939
Rp6940
sS'Country'
p6941
g1
((lp6942
S'Club'
p6943
atp6944
Rp6945
sS'Yorktown'
p6946
g1
((lp6947
g6
atp6948
Rp6949
sS'Macedonia'
p6950
g1
((lp6951
g6
atp6952
Rp6953
sS'Plymouth'
p6954
g1
((lp6955
g6
atp6956
Rp6957
sS'Pekin'
p6958
g1
((lp6959
g6
atp6960
Rp6961
sS'Stephenville'
p6962
g1
((lp6963
g6
atp6964
Rp6965
sS'Noble'
p6966
g1
((lp6967
g6
atp6968
Rp6969
sS'Suffern'
p6970
g1
((lp6971
g6
atp6972
Rp6973
sS'Adel'
p6974
g1
((lp6975
g6
atp6976
Rp6977
sS'Bethany'
p6978
g1
((lp6979
g6
atp6980
Rp6981
sS'Bullhead'
p6982
g1
((lp6983
S'City'
p6984
atp6985
Rp6986
sS'Brewer'
p6987
g1
((lp6988
g6
atp6989
Rp6990
sS'Hurstbourne'
p6991
g1
((lp6992
g6
atp6993
Rp6994
sS'Cedarburg'
p6995
g1
((lp6996
g6
atp6997
Rp6998
sS'Easley'
p6999
g1
((lp7000
g6
atp7001
Rp7002
sS'Juneau'
p7003
g1
((lp7004
g6
atp7005
Rp7006
sS'Moorhead'
p7007
g1
((lp7008
g6
atp7009
Rp7010
sS'Warsaw'
p7011
g1
((lp7012
g6
atp7013
Rp7014
sS'Maple'
p7015
g1
((lp7016
S'Grove'
p7017
aS'Valley'
p7018
aS'Heights'
p7019
atp7020
Rp7021
sS'Alachua'
p7022
g1
((lp7023
g6
atp7024
Rp7025
sS'Van'
p7026
g1
((lp7027
S'Wert'
p7028
aS'Buren'
p7029
atp7030
Rp7031
sS'Winter'
p7032
g1
((lp7033
S'Springs'
p7034
aS'Park'
p7035
aS'Haven'
p7036
aS'Garden'
p7037
atp7038
Rp7039
sS'Leander'
p7040
g1
((lp7041
g6
atp7042
Rp7043
sS'Dyersburg'
p7044
g1
((lp7045
g6
atp7046
Rp7047
sS'Alamosa'
p7048
g1
((lp7049
g6
atp7050
Rp7051
sS'Frederick'
p7052
g1
((lp7053
g6
atp7054
Rp7055
sS'Meadville'
p7056
g1
((lp7057
g6
atp7058
Rp7059
sS'Sunbury'
p7060
g1
((lp7061
g6
atp7062
Rp7063
sS'Chadron'
p7064
g1
((lp7065
g6
atp7066
Rp7067
sS'Peachtree'
p7068
g1
((lp7069
S'City'
p7070
atp7071
Rp7072
sS'Brownsburg'
p7073
g1
((lp7074
g6
atp7075
Rp7076
sS'Blakely'
p7077
g1
((lp7078
g6
atp7079
Rp7080
sS'Delavan'
p7081
g1
((lp7082
g6
atp7083
Rp7084
sS'Minot'
p7085
g1
((lp7086
g6
atp7087
Rp7088
sS'Moses'
p7089
g1
((lp7090
S'Lake'
p7091
atp7092
Rp7093
sS'Alameda'
p7094
g1
((lp7095
g6
atp7096
Rp7097
sS'Brown'
p7098
g1
((lp7099
S'Deer'
p7100
atp7101
Rp7102
sS'Nederland'
p7103
g1
((lp7104
g6
atp7105
Rp7106
sS'Ralston'
p7107
g1
((lp7108
g6
atp7109
Rp7110
sS'Winterset'
p7111
g1
((lp7112
g6
atp7113
Rp7114
sS'Rowlett'
p7115
g1
((lp7116
g6
atp7117
Rp7118
sS'Bayonne'
p7119
g1
((lp7120
g6
atp7121
Rp7122
sS'Fremont'
p7123
g1
((lp7124
g6
atp7125
Rp7126
sS'Buford'
p7127
g1
((lp7128
g6
atp7129
Rp7130
sS'Rifle'
p7131
g1
((lp7132
g6
atp7133
Rp7134
sS'Westchester'
p7135
g1
((lp7136
g6
atp7137
Rp7138
sS'Charlestown'
p7139
g1
((lp7140
g6
atp7141
Rp7142
sS'Eau'
p7143
g1
((lp7144
S'Claire'
p7145
atp7146
Rp7147
sS'Batesville'
p7148
g1
((lp7149
g6
atp7150
Rp7151
sS'Kettering'
p7152
g1
((lp7153
g6
atp7154
Rp7155
sS'Kennedale'
p7156
g1
((lp7157
g6
atp7158
Rp7159
sS'Flagstaff'
p7160
g1
((lp7161
g6
atp7162
Rp7163
sS'Jim'
p7164
g1
((lp7165
S'Thorpe'
p7166
atp7167
Rp7168
sS'Nogales'
p7169
g1
((lp7170
g6
atp7171
Rp7172
sS'Radcliff'
p7173
g1
((lp7174
g6
atp7175
Rp7176
sS'Erwin'
p7177
g1
((lp7178
g6
atp7179
Rp7180
sS'Bowling'
p7181
g1
((lp7182
S'Green'
p7183
atp7184
Rp7185
sS'Sebastian'
p7186
g1
((lp7187
g6
atp7188
Rp7189
sS'Salt'
p7190
g1
((lp7191
S'Lake'
p7192
atp7193
Rp7194
sS'Joshua'
p7195
g1
((lp7196
g6
atp7197
Rp7198
sS'Bolivar'
p7199
g1
((lp7200
g6
atp7201
Rp7202
sS'Mukwonago'
p7203
g1
((lp7204
g6
atp7205
Rp7206
sS'Kenneth'
p7207
g1
((lp7208
S'City'
p7209
atp7210
Rp7211
sS'Calipatria'
p7212
g1
((lp7213
g6
atp7214
Rp7215
sS'Vail'
p7216
g1
((lp7217
g6
atp7218
Rp7219
sS'Beaumont'
p7220
g1
((lp7221
g6
atp7222
Rp7223
sS'Murphy'
p7224
g1
((lp7225
g6
atp7226
Rp7227
sS'Kill'
p7228
g1
((lp7229
S'Devil'
p7230
atp7231
Rp7232
sS'Beavercreek'
p7233
g1
((lp7234
g6
atp7235
Rp7236
sS'Marshall'
p7237
g1
((lp7238
g6
atp7239
Rp7240
sS'Lanett'
p7241
g1
((lp7242
g6
atp7243
Rp7244
sS'Durant'
p7245
g1
((lp7246
g6
atp7247
Rp7248
sS'Rancho'
p7249
g1
((lp7250
S'Palos'
p7251
aS'Cucamonga'
p7252
aS'Cordova'
p7253
aS'Santa'
p7254
aS'Mirage'
p7255
atp7256
Rp7257
sS'Crossville'
p7258
g1
((lp7259
g6
atp7260
Rp7261
sS'Willow'
p7262
g1
((lp7263
S'Springs'
p7264
aS'Park'
p7265
atp7266
Rp7267
sS'Denver'
p7268
g1
((lp7269
g6
atp7270
Rp7271
sS'Picayune'
p7272
g1
((lp7273
g6
atp7274
Rp7275
sS'Hilliard'
p7276
g1
((lp7277
g6
atp7278
Rp7279
sS'Buda'
p7280
g1
((lp7281
g6
atp7282
Rp7283
sS'Ca\xa4on'
p7284
g1
((lp7285
S'City'
p7286
atp7287
Rp7288
sS'East'
p7289
g1
((lp7290
S'Ridge'
p7291
aS'Hills'
p7292
aS'Chicago'
p7293
aS'St.'
p7294
aS'Lansing'
p7295
aS'Providence'
p7296
aS'Petersburg'
p7297
aS'Grand'
p7298
aS'Orange'
p7299
aS'Cleveland'
p7300
aS'Wenatchee'
p7301
aS'Bethel'
p7302
aS'Liverpool'
p7303
aS'Alton'
p7304
aS'Aurora'
p7305
aS'Palestine'
p7306
aS'Rochester'
p7307
aS'Rutherford'
p7308
aS'Rockaway'
p7309
aS'Point'
p7310
aS'Moline'
p7311
aS'Troy'
p7312
aS'Palo'
p7313
aS'Stroudsburg'
p7314
aS'Peoria'
p7315
atp7316
Rp7317
sS'Hawthorn'
p7318
g1
((lp7319
S'Woods'
p7320
atp7321
Rp7322
sS'Crockett'
p7323
g1
((lp7324
g6
atp7325
Rp7326
sS'Metuchen'
p7327
g1
((lp7328
g6
atp7329
Rp7330
sS'Camarillo'
p7331
g1
((lp7332
g6
atp7333
Rp7334
sS'Callaway'
p7335
g1
((lp7336
g6
atp7337
Rp7338
sS'Cape'
p7339
g1
((lp7340
S'Canaveral'
p7341
aS'Girardeau'
p7342
aS'Coral'
p7343
atp7344
Rp7345
sS'Stillwater'
p7346
g1
((lp7347
g6
atp7348
Rp7349
sS'Sterling'
p7350
g1
((lp7351
g6
aS'Heights'
p7352
atp7353
Rp7354
sS'Rusk'
p7355
g1
((lp7356
g6
atp7357
Rp7358
sS'Susanville'
p7359
g1
((lp7360
g6
atp7361
Rp7362
sS'Choctaw'
p7363
g1
((lp7364
g6
atp7365
Rp7366
sS'Paramus'
p7367
g1
((lp7368
g6
atp7369
Rp7370
sS'Fallon'
p7371
g1
((lp7372
g6
atp7373
Rp7374
sS'Dowagiac'
p7375
g1
((lp7376
g6
atp7377
Rp7378
sS'Huntley'
p7379
g1
((lp7380
g6
atp7381
Rp7382
sS'Metropolis'
p7383
g1
((lp7384
g6
atp7385
Rp7386
sS'Laurel'
p7387
g1
((lp7388
g6
atp7389
Rp7390
sS'Ankeny'
p7391
g1
((lp7392
g6
atp7393
Rp7394
sS'Canandaigua'
p7395
g1
((lp7396
g6
atp7397
Rp7398
sS'Spencer'
p7399
g1
((lp7400
g6
atp7401
Rp7402
sS'Parkville'
p7403
g1
((lp7404
g6
atp7405
Rp7406
sS'Downingtown'
p7407
g1
((lp7408
g6
atp7409
Rp7410
sS'Lyons'
p7411
g1
((lp7412
g6
atp7413
Rp7414
sS'Winthrop'
p7415
g1
((lp7416
S'Harbor'
p7417
atp7418
Rp7419
sS'Robbinsdale'
p7420
g1
((lp7421
g6
atp7422
Rp7423
sS'Northampton'
p7424
g1
((lp7425
g6
atp7426
Rp7427
sS'Yuba'
p7428
g1
((lp7429
S'City'
p7430
atp7431
Rp7432
sS'Westwego'
p7433
g1
((lp7434
g6
atp7435
Rp7436
sS'Edna'
p7437
g1
((lp7438
g6
atp7439
Rp7440
sS'"Islamorada'
p7441
g1
((lp7442
g6
atp7443
Rp7444
sS'Maquoketa'
p7445
g1
((lp7446
g6
atp7447
Rp7448
sS'Skokie'
p7449
g1
((lp7450
g6
atp7451
Rp7452
sS'Marquette'
p7453
g1
((lp7454
g6
atp7455
Rp7456
sS'Milledgeville'
p7457
g1
((lp7458
g6
atp7459
Rp7460
sS'Clarksdale'
p7461
g1
((lp7462
g6
atp7463
Rp7464
sS'Metter'
p7465
g1
((lp7466
g6
atp7467
Rp7468
sS'Canal'
p7469
g1
((lp7470
S'Fulton'
p7471
aS'Winchester'
p7472
atp7473
Rp7474
sS'Northlake'
p7475
g1
((lp7476
g6
atp7477
Rp7478
sS'Pendleton'
p7479
g1
((lp7480
g6
atp7481
Rp7482
sS'Chicopee'
p7483
g1
((lp7484
g6
atp7485
Rp7486
sS'Lighthouse'
p7487
g1
((lp7488
S'Point'
p7489
atp7490
Rp7491
sS'Canton'
p7492
g1
((lp7493
g6
atp7494
Rp7495
sS'Richmond'
p7496
g1
((lp7497
g6
aS'Hill'
p7498
aS'Heights'
p7499
atp7500
Rp7501
sS'Providence'
p7502
g1
((lp7503
g6
atp7504
Rp7505
sS'Louisville'
p7506
g1
((lp7507
g6
atp7508
Rp7509
sS'Gypsum'
p7510
g1
((lp7511
g6
atp7512
Rp7513
sS'Vidalia'
p7514
g1
((lp7515
g6
atp7516
Rp7517
sS'Luray'
p7518
g1
((lp7519
g6
atp7520
Rp7521
sS'Mechanicville'
p7522
g1
((lp7523
g6
atp7524
Rp7525
sS'Clarks'
p7526
g1
((lp7527
S'Summit'
p7528
atp7529
Rp7530
sS'Lacey'
p7531
g1
((lp7532
g6
atp7533
Rp7534
sS'Walla'
p7535
g1
((lp7536
S'Walla'
p7537
atp7538
Rp7539
sS'Tega'
p7540
g1
((lp7541
S'Cay'
p7542
atp7543
Rp7544
sS'Columbus'
p7545
g1
((lp7546
g6
atp7547
Rp7548
sS'Escalon'
p7549
g1
((lp7550
g6
atp7551
Rp7552
sS'Swoyersville'
p7553
g1
((lp7554
g6
atp7555
Rp7556
sS'Niles'
p7557
g1
((lp7558
g6
atp7559
Rp7560
sS'Cadillac'
p7561
g1
((lp7562
g6
atp7563
Rp7564
sS'Alabaster'
p7565
g1
((lp7566
g6
atp7567
Rp7568
sS'Barstow'
p7569
g1
((lp7570
g6
atp7571
Rp7572
sS'Ozark'
p7573
g1
((lp7574
g6
atp7575
Rp7576
sS'Hyrum'
p7577
g1
((lp7578
g6
atp7579
Rp7580
sS'Manville'
p7581
g1
((lp7582
g6
atp7583
Rp7584
sS'Hopkinsville'
p7585
g1
((lp7586
g6
atp7587
Rp7588
sS'Oak'
p7589
g1
((lp7590
S'Lawn'
p7591
aS'Ridge'
p7592
aS'Creek'
p7593
aS'Harbor'
p7594
aS'Brook'
p7595
aS'Park'
p7596
aS'Grove'
p7597
aS'Forest'
p7598
aS'Island'
p7599
aS'Hill'
p7600
atp7601
Rp7602
sS'Humble'
p7603
g1
((lp7604
g6
atp7605
Rp7606
sS'Nebraska'
p7607
g1
((lp7608
S'City'
p7609
atp7610
Rp7611
sS'Loveland'
p7612
g1
((lp7613
g6
atp7614
Rp7615
sS'American'
p7616
g1
((lp7617
S'Fork'
p7618
aS'Canyon'
p7619
atp7620
Rp7621
sS'Edcouch'
p7622
g1
((lp7623
g6
atp7624
Rp7625
sS'Dyer'
p7626
g1
((lp7627
g6
atp7628
Rp7629
sS'Woburn'
p7630
g1
((lp7631
g6
atp7632
Rp7633
sS'Willows'
p7634
g1
((lp7635
g6
atp7636
Rp7637
sS'Oldsmar'
p7638
g1
((lp7639
g6
atp7640
Rp7641
sS'Greenfield'
p7642
g1
((lp7643
g6
atp7644
Rp7645
sS'Pottsville'
p7646
g1
((lp7647
g6
atp7648
Rp7649
sS'Bunkie'
p7650
g1
((lp7651
g6
atp7652
Rp7653
sS'Citrus'
p7654
g1
((lp7655
S'Heights'
p7656
atp7657
Rp7658
sS'Weddington'
p7659
g1
((lp7660
g6
atp7661
Rp7662
sS'Wentzville'
p7663
g1
((lp7664
g6
atp7665
Rp7666
sS'Hamlet'
p7667
g1
((lp7668
g6
atp7669
Rp7670
sS'Owatonna'
p7671
g1
((lp7672
g6
atp7673
Rp7674
sS'Hartwell'
p7675
g1
((lp7676
g6
atp7677
Rp7678
sS'Palmhurst'
p7679
g1
((lp7680
g6
atp7681
Rp7682
sS'Raymore'
p7683
g1
((lp7684
g6
atp7685
Rp7686
sS'Cathedral'
p7687
g1
((lp7688
S'City'
p7689
atp7690
Rp7691
sS'Mustang'
p7692
g1
((lp7693
g6
atp7694
Rp7695
sS'Zebulon'
p7696
g1
((lp7697
g6
atp7698
Rp7699
sS'Gallatin'
p7700
g1
((lp7701
g6
atp7702
Rp7703
sS'Denton'
p7704
g1
((lp7705
g6
atp7706
Rp7707
sS'Lindon'
p7708
g1
((lp7709
g6
atp7710
Rp7711
sS'Bonita'
p7712
g1
((lp7713
S'Springs'
p7714
atp7715
Rp7716
sS'Cahokia'
p7717
g1
((lp7718
g6
atp7719
Rp7720
sS'Vine'
p7721
g1
((lp7722
S'Grove'
p7723
atp7724
Rp7725
sS'Martinsburg'
p7726
g1
((lp7727
g6
atp7728
Rp7729
sS'Pewaukee'
p7730
g1
((lp7731
g6
atp7732
Rp7733
sS'Bloomsburg'
p7734
g1
((lp7735
g6
atp7736
Rp7737
sS'Paterson'
p7738
g1
((lp7739
g6
atp7740
Rp7741
sS'Ivins'
p7742
g1
((lp7743
g6
atp7744
Rp7745
sS'Yucca'
p7746
g1
((lp7747
S'Valley'
p7748
atp7749
Rp7750
sS'Harlingen'
p7751
g1
((lp7752
g6
atp7753
Rp7754
sS'Jacinto'
p7755
g1
((lp7756
S'City'
p7757
atp7758
Rp7759
sS'Paramount'
p7760
g1
((lp7761
g6
atp7762
Rp7763
sS'Mounds'
p7764
g1
((lp7765
S'View'
p7766
atp7767
Rp7768
sS'Snoqualmie'
p7769
g1
((lp7770
g6
atp7771
Rp7772
sS'Streamwood'
p7773
g1
((lp7774
g6
atp7775
Rp7776
sS'Pocatello'
p7777
g1
((lp7778
g6
atp7779
Rp7780
sS'Sylacauga'
p7781
g1
((lp7782
g6
atp7783
Rp7784
sS'Jenkintown'
p7785
g1
((lp7786
g6
atp7787
Rp7788
sS'Fall'
p7789
g1
((lp7790
S'River'
p7791
atp7792
Rp7793
sS'Plum'
p7794
g1
((lp7795
g6
atp7796
Rp7797
sS'Tarrytown'
p7798
g1
((lp7799
g6
atp7800
Rp7801
sS'Hanover'
p7802
g1
((lp7803
g6
aS'Park'
p7804
atp7805
Rp7806
sS'Chattanooga'
p7807
g1
((lp7808
g6
atp7809
Rp7810
sS'Watonga'
p7811
g1
((lp7812
g6
atp7813
Rp7814
sS'Cheboygan'
p7815
g1
((lp7816
g6
atp7817
Rp7818
sS'Compton'
p7819
g1
((lp7820
g6
atp7821
Rp7822
sS'Bellefonte'
p7823
g1
((lp7824
g6
atp7825
Rp7826
sS'Petaluma'
p7827
g1
((lp7828
g6
atp7829
Rp7830
sS'Shepherdsville'
p7831
g1
((lp7832
g6
atp7833
Rp7834
sS'Burkburnett'
p7835
g1
((lp7836
g6
atp7837
Rp7838
sS'Capitola'
p7839
g1
((lp7840
g6
atp7841
Rp7842
sS'Sevierville'
p7843
g1
((lp7844
g6
atp7845
Rp7846
sS'Garden'
p7847
g1
((lp7848
S'Grove'
p7849
aS'City'
p7850
atp7851
Rp7852
sS'Plover'
p7853
g1
((lp7854
g6
atp7855
Rp7856
sS'Sapulpa'
p7857
g1
((lp7858
g6
atp7859
Rp7860
sS'Belgrade'
p7861
g1
((lp7862
g6
atp7863
Rp7864
sS'Stevens'
p7865
g1
((lp7866
S'Point'
p7867
atp7868
Rp7869
sS'Dillon'
p7870
g1
((lp7871
g6
atp7872
Rp7873
sS'Sweet'
p7874
g1
((lp7875
S'Home'
p7876
atp7877
Rp7878
sS'Hunters'
p7879
g1
((lp7880
S'Creek'
p7881
atp7882
Rp7883
sS'Deer'
p7884
g1
((lp7885
S'Park'
p7886
atp7887
Rp7888
sS'Seat'
p7889
g1
((lp7890
S'Pleasant'
p7891
atp7892
Rp7893
sS'Woonsocket'
p7894
g1
((lp7895
g6
atp7896
Rp7897
sS'Logan'
p7898
g1
((lp7899
g6
atp7900
Rp7901
sS'Seal'
p7902
g1
((lp7903
S'Beach'
p7904
atp7905
Rp7906
sS'Bulverde'
p7907
g1
((lp7908
g6
atp7909
Rp7910
sS'Chowchilla'
p7911
g1
((lp7912
g6
atp7913
Rp7914
sS'Myrtle'
p7915
g1
((lp7916
S'Beach'
p7917
atp7918
Rp7919
sS'Marathon'
p7920
g1
((lp7921
g6
atp7922
Rp7923
sS'Yukon'
p7924
g1
((lp7925
g6
atp7926
Rp7927
sS'Menomonee'
p7928
g1
((lp7929
S'Falls'
p7930
atp7931
Rp7932
sS'Silsbee'
p7933
g1
((lp7934
g6
atp7935
Rp7936
sS'Arden'
p7937
g1
((lp7938
S'Hills'
p7939
atp7940
Rp7941
sS'Grapevine'
p7942
g1
((lp7943
g6
atp7944
Rp7945
sS'Fishers'
p7946
g1
((lp7947
g6
atp7948
Rp7949
sS'Ruston'
p7950
g1
((lp7951
g6
atp7952
Rp7953
sS'Ridgewood'
p7954
g1
((lp7955
g6
atp7956
Rp7957
sS'Chanhassen'
p7958
g1
((lp7959
g6
atp7960
Rp7961
sS'Dixon'
p7962
g1
((lp7963
g6
atp7964
Rp7965
sS'Palatka'
p7966
g1
((lp7967
g6
atp7968
Rp7969
sS'Canfield'
p7970
g1
((lp7971
g6
atp7972
Rp7973
sS'Brunswick'
p7974
g1
((lp7975
g6
atp7976
Rp7977
sS'Smithfield'
p7978
g1
((lp7979
g6
atp7980
Rp7981
sS'Texas'
p7982
g1
((lp7983
S'City'
p7984
atp7985
Rp7986
sS'Wenatchee'
p7987
g1
((lp7988
g6
atp7989
Rp7990
sS'Hartselle'
p7991
g1
((lp7992
g6
atp7993
Rp7994
sS'Galesburg'
p7995
g1
((lp7996
g6
atp7997
Rp7998
sS'Pinole'
p7999
g1
((lp8000
g6
atp8001
Rp8002
sS'Irmo'
p8003
g1
((lp8004
g6
atp8005
Rp8006
sS'Marlborough'
p8007
g1
((lp8008
g6
atp8009
Rp8010
sS'Monticello'
p8011
g1
((lp8012
g6
atp8013
Rp8014
sS'Carnegie'
p8015
g1
((lp8016
g6
atp8017
Rp8018
sS'Herrin'
p8019
g1
((lp8020
g6
atp8021
Rp8022
sS'Marietta'
p8023
g1
((lp8024
g6
atp8025
Rp8026
sS'Carmi'
p8027
g1
((lp8028
g6
atp8029
Rp8030
sS'Hamburg'
p8031
g1
((lp8032
g6
atp8033
Rp8034
sS'Tomah'
p8035
g1
((lp8036
g6
atp8037
Rp8038
sS'Wilsonville'
p8039
g1
((lp8040
g6
atp8041
Rp8042
sS'Oklahoma'
p8043
g1
((lp8044
S'City'
p8045
atp8046
Rp8047
sS'Wetumpka'
p8048
g1
((lp8049
g6
atp8050
Rp8051
sS'Leesburg'
p8052
g1
((lp8053
g6
atp8054
Rp8055
sS'Loma'
p8056
g1
((lp8057
S'Linda'
p8058
atp8059
Rp8060
sS'Edinburg'
p8061
g1
((lp8062
g6
atp8063
Rp8064
sS'Tumwater'
p8065
g1
((lp8066
g6
atp8067
Rp8068
sS'Bay'
p8069
g1
((lp8070
S'Harbor'
p8071
aS'City'
p8072
aS'St.'
p8073
aS'Minette'
p8074
aS'Village'
p8075
atp8076
Rp8077
sS'Oxford'
p8078
g1
((lp8079
g6
atp8080
Rp8081
sS'Tualatin'
p8082
g1
((lp8083
g6
atp8084
Rp8085
sS'Seward'
p8086
g1
((lp8087
g6
atp8088
Rp8089
sS'Penn'
p8090
g1
((lp8091
S'Yan'
p8092
atp8093
Rp8094
sS'Lantana'
p8095
g1
((lp8096
g6
atp8097
Rp8098
sS'Henryetta'
p8099
g1
((lp8100
g6
atp8101
Rp8102
sS'Savannah'
p8103
g1
((lp8104
g6
atp8105
Rp8106
sS'Petal'
p8107
g1
((lp8108
g6
atp8109
Rp8110
sS'Sikeston'
p8111
g1
((lp8112
g6
atp8113
Rp8114
sS'Newton'
p8115
g1
((lp8116
g6
aS'Falls'
p8117
atp8118
Rp8119
sS'Council'
p8120
g1
((lp8121
S'Bluffs'
p8122
atp8123
Rp8124
sS'Wapakoneta'
p8125
g1
((lp8126
g6
atp8127
Rp8128
sS'Effingham'
p8129
g1
((lp8130
g6
atp8131
Rp8132
sS'Sayre'
p8133
g1
((lp8134
g6
atp8135
Rp8136
sS'Duvall'
p8137
g1
((lp8138
g6
atp8139
Rp8140
sS'Royersford'
p8141
g1
((lp8142
g6
atp8143
Rp8144
sS'Flatwoods'
p8145
g1
((lp8146
g6
atp8147
Rp8148
sS'Waseca'
p8149
g1
((lp8150
g6
atp8151
Rp8152
sS'Haltom'
p8153
g1
((lp8154
S'City'
p8155
atp8156
Rp8157
sS'Goodland'
p8158
g1
((lp8159
g6
atp8160
Rp8161
sS'Jefferson'
p8162
g1
((lp8163
g6
aS'City'
p8164
aS'Hills'
p8165
atp8166
Rp8167
sS'Poolesville'
p8168
g1
((lp8169
g6
atp8170
Rp8171
sS'Beatrice'
p8172
g1
((lp8173
g6
atp8174
Rp8175
sS'Reading'
p8176
g1
((lp8177
g6
atp8178
Rp8179
sS'Slinger'
p8180
g1
((lp8181
g6
atp8182
Rp8183
sS'Coos'
p8184
g1
((lp8185
S'Bay'
p8186
atp8187
Rp8188
sS'Flat'
p8189
g1
((lp8190
S'Rock'
p8191
atp8192
Rp8193
sS'Selinsgrove'
p8194
g1
((lp8195
g6
atp8196
Rp8197
sS'Weldon'
p8198
g1
((lp8199
S'Spring'
p8200
atp8201
Rp8202
sS'Everett'
p8203
g1
((lp8204
g6
atp8205
Rp8206
sS'Hawthorne'
p8207
g1
((lp8208
g6
atp8209
Rp8210
sS'Dubuque'
p8211
g1
((lp8212
g6
atp8213
Rp8214
sS'Carpinteria'
p8215
g1
((lp8216
g6
atp8217
Rp8218
sS'Batesburg-Leesville'
p8219
g1
((lp8220
g6
atp8221
Rp8222
sS'Ridgefield'
p8223
g1
((lp8224
g6
aS'Park'
p8225
atp8226
Rp8227
sS'Sutherlin'
p8228
g1
((lp8229
g6
atp8230
Rp8231
sS'Kennesaw'
p8232
g1
((lp8233
g6
atp8234
Rp8235
sS'Bolingbrook'
p8236
g1
((lp8237
g6
atp8238
Rp8239
sS'Coon'
p8240
g1
((lp8241
S'Rapids'
p8242
atp8243
Rp8244
sS'Kosciusko'
p8245
g1
((lp8246
g6
atp8247
Rp8248
sS'Pineville'
p8249
g1
((lp8250
g6
atp8251
Rp8252
sS'Town'
p8253
g1
((lp8254
S'and'
p8255
atp8256
Rp8257
sS'Littlefield'
p8258
g1
((lp8259
g6
atp8260
Rp8261
sS'Yorba'
p8262
g1
((lp8263
S'Linda'
p8264
atp8265
Rp8266
sS'Parsons'
p8267
g1
((lp8268
g6
atp8269
Rp8270
sS'Morro'
p8271
g1
((lp8272
S'Bay'
p8273
atp8274
Rp8275
sS'Tucson'
p8276
g1
((lp8277
g6
atp8278
Rp8279
sS'Ripon'
p8280
g1
((lp8281
g6
atp8282
Rp8283
sS'Daleville'
p8284
g1
((lp8285
g6
atp8286
Rp8287
sS'Navasota'
p8288
g1
((lp8289
g6
atp8290
Rp8291
sS'Pelham'
p8292
g1
((lp8293
g6
aS'Manor'
p8294
atp8295
Rp8296
sS'El'
p8297
g1
((lp8298
S'Cajon'
p8299
aS'Monte'
p8300
aS'Segundo'
p8301
aS'Campo'
p8302
aS'Paso'
p8303
aS'Centro'
p8304
aS'Reno'
p8305
aS'Cerrito'
p8306
aS'Mirage'
p8307
aS'Dorado'
p8308
atp8309
Rp8310
sS'Belding'
p8311
g1
((lp8312
g6
atp8313
Rp8314
sS'Evans'
p8315
g1
((lp8316
g6
atp8317
Rp8318
sS'Brainerd'
p8319
g1
((lp8320
g6
atp8321
Rp8322
sS'Boston'
p8323
g1
((lp8324
g6
atp8325
Rp8326
sS'Kennewick'
p8327
g1
((lp8328
g6
atp8329
Rp8330
sS'Paso'
p8331
g1
((lp8332
S'Robles'
p8333
atp8334
Rp8335
sS'Batavia'
p8336
g1
((lp8337
g6
atp8338
Rp8339
sS'Eloy'
p8340
g1
((lp8341
g6
atp8342
Rp8343
sS'Solvang'
p8344
g1
((lp8345
g6
atp8346
Rp8347
sS'Elon'
p8348
g1
((lp8349
g6
atp8350
Rp8351
sS'Doral'
p8352
g1
((lp8353
g6
atp8354
Rp8355
sS'Pullman'
p8356
g1
((lp8357
g6
atp8358
Rp8359
sS'Hidalgo'
p8360
g1
((lp8361
g6
atp8362
Rp8363
sS'Sault'
p8364
g1
((lp8365
S'Ste.'
p8366
atp8367
Rp8368
sS'Oakmont'
p8369
g1
((lp8370
g6
atp8371
Rp8372
sS'Prattville'
p8373
g1
((lp8374
g6
atp8375
Rp8376
sS'Sunny'
p8377
g1
((lp8378
S'Isles'
p8379
atp8380
Rp8381
sS'Redondo'
p8382
g1
((lp8383
S'Beach'
p8384
atp8385
Rp8386
sS'Hugo'
p8387
g1
((lp8388
g6
atp8389
Rp8390
sS'Elsa'
p8391
g1
((lp8392
g6
atp8393
Rp8394
sS'Fayette'
p8395
g1
((lp8396
g6
atp8397
Rp8398
sS'Avenal'
p8399
g1
((lp8400
g6
atp8401
Rp8402
sS'Asheboro'
p8403
g1
((lp8404
g6
atp8405
Rp8406
sS'Indian'
p8407
g1
((lp8408
S'Trail'
p8409
aS'Wells'
p8410
aS'Harbour'
p8411
aS'Rocks'
p8412
atp8413
Rp8414
sS'Gilbert'
p8415
g1
((lp8416
g6
atp8417
Rp8418
sS'Chesterton'
p8419
g1
((lp8420
g6
atp8421
Rp8422
sS'Salamanca'
p8423
g1
((lp8424
g6
atp8425
Rp8426
sS'Cuero'
p8427
g1
((lp8428
g6
atp8429
Rp8430
sS'Elkhart'
p8431
g1
((lp8432
g6
atp8433
Rp8434
sS'Selma'
p8435
g1
((lp8436
g6
atp8437
Rp8438
sS'Alhambra'
p8439
g1
((lp8440
g6
atp8441
Rp8442
sS'Brigantine'
p8443
g1
((lp8444
g6
atp8445
Rp8446
sS'Springville'
p8447
g1
((lp8448
g6
atp8449
Rp8450
sS'Pleasant'
p8451
g1
((lp8452
S'Garden'
p8453
aS'Grove'
p8454
aS'Hills'
p8455
aS'Prairie'
p8456
aS'Hill'
p8457
aS'View'
p8458
atp8459
Rp8460
sS'Ojai'
p8461
g1
((lp8462
g6
atp8463
Rp8464
sS'Elmsford'
p8465
g1
((lp8466
g6
atp8467
Rp8468
sS'Escondido'
p8469
g1
((lp8470
g6
atp8471
Rp8472
sS'Hamtramck'
p8473
g1
((lp8474
g6
atp8475
Rp8476
sS'Northwoods'
p8477
g1
((lp8478
g6
atp8479
Rp8480
sS'Roeland'
p8481
g1
((lp8482
S'Park'
p8483
atp8484
Rp8485
sS'Vineland'
p8486
g1
((lp8487
g6
atp8488
Rp8489
sS'Lone'
p8490
g1
((lp8491
S'Grove'
p8492
aS'Tree'
p8493
atp8494
Rp8495
sS'Delta'
p8496
g1
((lp8497
g6
atp8498
Rp8499
sS'Paola'
p8500
g1
((lp8501
g6
atp8502
Rp8503
sS'Ottawa'
p8504
g1
((lp8505
g6
aS'Hills'
p8506
atp8507
Rp8508
sS'Woodfin'
p8509
g1
((lp8510
g6
atp8511
Rp8512
sS'Ventura'
p8513
g1
((lp8514
g6
atp8515
Rp8516
sS'Schertz'
p8517
g1
((lp8518
g6
atp8519
Rp8520
sS'Matthews'
p8521
g1
((lp8522
g6
atp8523
Rp8524
sS'Prosser'
p8525
g1
((lp8526
g6
atp8527
Rp8528
sS'Schuyler'
p8529
g1
((lp8530
g6
atp8531
Rp8532
sS'Asbury'
p8533
g1
((lp8534
S'Park'
p8535
atp8536
Rp8537
sS'Concordia'
p8538
g1
((lp8539
g6
atp8540
Rp8541
sS'Shiloh'
p8542
g1
((lp8543
g6
atp8544
Rp8545
sS'Rockwall'
p8546
g1
((lp8547
g6
atp8548
Rp8549
sS'Waterville'
p8550
g1
((lp8551
g6
atp8552
Rp8553
sS'Douglas'
p8554
g1
((lp8555
g6
atp8556
Rp8557
sS'Silvis'
p8558
g1
((lp8559
g6
atp8560
Rp8561
sS'Yorkville'
p8562
g1
((lp8563
g6
atp8564
Rp8565
sS'Brier'
p8566
g1
((lp8567
g6
atp8568
Rp8569
sS'Hazelwood'
p8570
g1
((lp8571
g6
atp8572
Rp8573
sS'Woodridge'
p8574
g1
((lp8575
g6
atp8576
Rp8577
sS'Somerset'
p8578
g1
((lp8579
g6
atp8580
Rp8581
sS'Odessa'
p8582
g1
((lp8583
g6
atp8584
Rp8585
sS'Sayreville'
p8586
g1
((lp8587
g6
atp8588
Rp8589
sS'Shoreline'
p8590
g1
((lp8591
g6
atp8592
Rp8593
sS'Vincennes'
p8594
g1
((lp8595
g6
atp8596
Rp8597
sS'Erlanger'
p8598
g1
((lp8599
g6
atp8600
Rp8601
sS'Virginia'
p8602
g1
((lp8603
g6
aS'Beach'
p8604
atp8605
Rp8606
sS'Cudahy'
p8607
g1
((lp8608
g6
atp8609
Rp8610
sS'Conshohocken'
p8611
g1
((lp8612
g6
atp8613
Rp8614
sS'Allendale'
p8615
g1
((lp8616
g6
atp8617
Rp8618
sS'Othello'
p8619
g1
((lp8620
g6
atp8621
Rp8622
sS'Falfurrias'
p8623
g1
((lp8624
g6
atp8625
Rp8626
sS'Sheboygan'
p8627
g1
((lp8628
g6
aS'Falls'
p8629
atp8630
Rp8631
sS'Amityville'
p8632
g1
((lp8633
g6
atp8634
Rp8635
sS'Kenai'
p8636
g1
((lp8637
g6
atp8638
Rp8639
sS'Spirit'
p8640
g1
((lp8641
S'Lake'
p8642
atp8643
Rp8644
sS'Martins'
p8645
g1
((lp8646
S'Ferry'
p8647
atp8648
Rp8649
sS'Locust'
p8650
g1
((lp8651
S'Grove'
p8652
atp8653
Rp8654
sS'Heath'
p8655
g1
((lp8656
g6
atp8657
Rp8658
sS'Brady'
p8659
g1
((lp8660
g6
atp8661
Rp8662
sS'Lafayette'
p8663
g1
((lp8664
g6
atp8665
Rp8666
sS'Tahlequah'
p8667
g1
((lp8668
g6
atp8669
Rp8670
sS'Manassas'
p8671
g1
((lp8672
g6
aS'Park'
p8673
atp8674
Rp8675
sS'The'
p8676
g1
((lp8677
S'Dalles'
p8678
aS'Colony'
p8679
aS'Village'
p8680
atp8681
Rp8682
sS'Hillview'
p8683
g1
((lp8684
g6
atp8685
Rp8686
sS'Bridge'
p8687
g1
((lp8688
S'City'
p8689
atp8690
Rp8691
sS'Huntingdon'
p8692
g1
((lp8693
g6
atp8694
Rp8695
sS'Johns'
p8696
g1
((lp8697
S'Creek'
p8698
atp8699
Rp8700
sS'Searcy'
p8701
g1
((lp8702
g6
atp8703
Rp8704
sS'Gloversville'
p8705
g1
((lp8706
g6
atp8707
Rp8708
sS'Robinson'
p8709
g1
((lp8710
g6
atp8711
Rp8712
sS'Milton-Freewater'
p8713
g1
((lp8714
g6
atp8715
Rp8716
sS'Ypsilanti'
p8717
g1
((lp8718
g6
atp8719
Rp8720
sS'Ham'
p8721
g1
((lp8722
S'Lake'
p8723
atp8724
Rp8725
sS'Burnsville'
p8726
g1
((lp8727
g6
atp8728
Rp8729
sS'Bixby'
p8730
g1
((lp8731
g6
atp8732
Rp8733
sS'Reedley'
p8734
g1
((lp8735
g6
atp8736
Rp8737
sS'Doylestown'
p8738
g1
((lp8739
g6
atp8740
Rp8741
sS'Hoquiam'
p8742
g1
((lp8743
g6
atp8744
Rp8745
sS'Palestine'
p8746
g1
((lp8747
g6
atp8748
Rp8749
sS'Kirkland'
p8750
g1
((lp8751
g6
atp8752
Rp8753
sS'Henderson'
p8754
g1
((lp8755
g6
atp8756
Rp8757
sS'Creswell'
p8758
g1
((lp8759
g6
atp8760
Rp8761
sS'Redmond'
p8762
g1
((lp8763
g6
atp8764
Rp8765
sS'Dunn'
p8766
g1
((lp8767
g6
atp8768
Rp8769
sS'Tulsa'
p8770
g1
((lp8771
g6
atp8772
Rp8773
sS'Pittston'
p8774
g1
((lp8775
g6
atp8776
Rp8777
sS'Harrah'
p8778
g1
((lp8779
g6
atp8780
Rp8781
sS'Farmersville'
p8782
g1
((lp8783
g6
atp8784
Rp8785
sS'Morgantown'
p8786
g1
((lp8787
g6
atp8788
Rp8789
sS'Broomfield'
p8790
g1
((lp8791
g6
atp8792
Rp8793
sS'Bedford'
p8794
g1
((lp8795
g6
aS'Heights'
p8796
atp8797
Rp8798
sS'Monahans'
p8799
g1
((lp8800
g6
atp8801
Rp8802
sS'Pascagoula'
p8803
g1
((lp8804
g6
atp8805
Rp8806
sS'Loganville'
p8807
g1
((lp8808
g6
atp8809
Rp8810
sS'Dublin'
p8811
g1
((lp8812
g6
atp8813
Rp8814
sS'Crystal'
p8815
g1
((lp8816
g6
aS'City'
p8817
aS'Lake'
p8818
aS'Springs'
p8819
atp8820
Rp8821
sS'Kuna'
p8822
g1
((lp8823
g6
atp8824
Rp8825
sS'Eaton'
p8826
g1
((lp8827
g6
aS'Rapids'
p8828
atp8829
Rp8830
sS'Winnsboro'
p8831
g1
((lp8832
g6
atp8833
Rp8834
sS'Paxton'
p8835
g1
((lp8836
g6
atp8837
Rp8838
sS'Monaca'
p8839
g1
((lp8840
g6
atp8841
Rp8842
sS'Keene'
p8843
g1
((lp8844
g6
atp8845
Rp8846
sS'Olympia'
p8847
g1
((lp8848
g6
aS'Fields'
p8849
atp8850
Rp8851
sS'Portales'
p8852
g1
((lp8853
g6
atp8854
Rp8855
sS'Westlake'
p8856
g1
((lp8857
g6
aS'Village'
p8858
atp8859
Rp8860
sS'Minneapolis'
p8861
g1
((lp8862
g6
atp8863
Rp8864
sS'Warrenton'
p8865
g1
((lp8866
g6
atp8867
Rp8868
sS'Pana'
p8869
g1
((lp8870
g6
atp8871
Rp8872
sS'Prairie'
p8873
g1
((lp8874
S'du'
p8875
aS'View'
p8876
aS'Village'
p8877
atp8878
Rp8879
sS'Marion'
p8880
g1
((lp8881
g6
atp8882
Rp8883
sS'Itasca'
p8884
g1
((lp8885
g6
atp8886
Rp8887
sS'Dalton'
p8888
g1
((lp8889
g6
atp8890
Rp8891
sS'Huron'
p8892
g1
((lp8893
g6
atp8894
Rp8895
sS'Pevely'
p8896
g1
((lp8897
g6
atp8898
Rp8899
sS'Manteca'
p8900
g1
((lp8901
g6
atp8902
Rp8903
sS'Rochester'
p8904
g1
((lp8905
g6
aS'Hills'
p8906
atp8907
Rp8908
sS'Parkersburg'
p8909
g1
((lp8910
g6
atp8911
Rp8912
sS'Knoxville'
p8913
g1
((lp8914
g6
atp8915
Rp8916
sS'Fox'
p8917
g1
((lp8918
S'Chapel'
p8919
aS'River'
p8920
aS'Lake'
p8921
aS'Point'
p8922
atp8923
Rp8924
sS'Arvada'
p8925
g1
((lp8926
g6
atp8927
Rp8928
sS'Laramie'
p8929
g1
((lp8930
g6
atp8931
Rp8932
sS'Cullman'
p8933
g1
((lp8934
g6
atp8935
Rp8936
sS'Cheraw'
p8937
g1
((lp8938
g6
atp8939
Rp8940
sS'Kutztown'
p8941
g1
((lp8942
g6
atp8943
Rp8944
sS'Cheyenne'
p8945
g1
((lp8946
g6
atp8947
Rp8948
sS'Keyser'
p8949
g1
((lp8950
g6
atp8951
Rp8952
sS'Nibley'
p8953
g1
((lp8954
g6
atp8955
Rp8956
sS'Phoenixville'
p8957
g1
((lp8958
g6
atp8959
Rp8960
sS'Snowflake'
p8961
g1
((lp8962
g6
atp8963
Rp8964
sS'Appleton'
p8965
g1
((lp8966
g6
atp8967
Rp8968
sS'Woodside'
p8969
g1
((lp8970
g6
atp8971
Rp8972
sS'Pontiac'
p8973
g1
((lp8974
g6
atp8975
Rp8976
sS'Tullahoma'
p8977
g1
((lp8978
g6
atp8979
Rp8980
sS'Wausau'
p8981
g1
((lp8982
g6
atp8983
Rp8984
sS'Manistee'
p8985
g1
((lp8986
g6
atp8987
Rp8988
sS'Terre'
p8989
g1
((lp8990
S'Haute'
p8991
atp8992
Rp8993
sS'Park'
p8994
g1
((lp8995
S'City'
p8996
aS'Ridge'
p8997
aS'Forest'
p8998
aS'Hills'
p8999
atp9000
Rp9001
sS'Catoosa'
p9002
g1
((lp9003
g6
atp9004
Rp9005
sS'Oregon'
p9006
g1
((lp9007
g6
aS'City'
p9008
atp9009
Rp9010
sS'Keokuk'
p9011
g1
((lp9012
g6
atp9013
Rp9014
sS'Lauderdale'
p9015
g1
((lp9016
S'Lakes'
p9017
atp9018
Rp9019
sS'Stanwood'
p9020
g1
((lp9021
g6
atp9022
Rp9023
sS'Yuma'
p9024
g1
((lp9025
g6
atp9026
Rp9027
sS'Soddy-Daisy'
p9028
g1
((lp9029
g6
atp9030
Rp9031
sS'Bridgeport'
p9032
g1
((lp9033
g6
atp9034
Rp9035
sS'Florida'
p9036
g1
((lp9037
S'City'
p9038
atp9039
Rp9040
sS'Prosper'
p9041
g1
((lp9042
g6
atp9043
Rp9044
sS'Baldwinsville'
p9045
g1
((lp9046
g6
atp9047
Rp9048
sS'Tustin'
p9049
g1
((lp9050
g6
atp9051
Rp9052
sS'Sand'
p9053
g1
((lp9054
S'Springs'
p9055
atp9056
Rp9057
sS'Palmview'
p9058
g1
((lp9059
g6
atp9060
Rp9061
sS'Belen'
p9062
g1
((lp9063
g6
atp9064
Rp9065
sS'Ionia'
p9066
g1
((lp9067
g6
atp9068
Rp9069
sS'Siloam'
p9070
g1
((lp9071
S'Springs'
p9072
atp9073
Rp9074
sS'Dana'
p9075
g1
((lp9076
S'Point'
p9077
atp9078
Rp9079
sS'Ketchikan'
p9080
g1
((lp9081
g6
atp9082
Rp9083
sS'Buckhannon'
p9084
g1
((lp9085
g6
atp9086
Rp9087
sS'Luling'
p9088
g1
((lp9089
g6
atp9090
Rp9091
sS'Dawson'
p9092
g1
((lp9093
g6
atp9094
Rp9095
sS'Cody'
p9096
g1
((lp9097
g6
atp9098
Rp9099
sS'Graham'
p9100
g1
((lp9101
g6
atp9102
Rp9103
sS'Mascoutah'
p9104
g1
((lp9105
g6
atp9106
Rp9107
sS'Madisonville'
p9108
g1
((lp9109
g6
atp9110
Rp9111
sS'Sidney'
p9112
g1
((lp9113
g6
atp9114
Rp9115
sS'Lenoir'
p9116
g1
((lp9117
g6
aS'City'
p9118
atp9119
Rp9120
sS'Panama'
p9121
g1
((lp9122
S'City'
p9123
atp9124
Rp9125
sS'Umatilla'
p9126
g1
((lp9127
g6
atp9128
Rp9129
sS'Oneonta'
p9130
g1
((lp9131
g6
atp9132
Rp9133
sS'Bellaire'
p9134
g1
((lp9135
g6
atp9136
Rp9137
sS'Stewartville'
p9138
g1
((lp9139
g6
atp9140
Rp9141
sS'Lakeway'
p9142
g1
((lp9143
g6
atp9144
Rp9145
sS'Clyde'
p9146
g1
((lp9147
g6
atp9148
Rp9149
sS'Vicksburg'
p9150
g1
((lp9151
g6
atp9152
Rp9153
sS'Schaumburg'
p9154
g1
((lp9155
g6
atp9156
Rp9157
sS'Shasta'
p9158
g1
((lp9159
S'Lake'
p9160
atp9161
Rp9162
sS'McHenry'
p9163
g1
((lp9164
g6
atp9165
Rp9166
sS'Kasson'
p9167
g1
((lp9168
g6
atp9169
Rp9170
sS'Bethel'
p9171
g1
((lp9172
g6
aS'Park'
p9173
atp9174
Rp9175
sS'Cary'
p9176
g1
((lp9177
g6
atp9178
Rp9179
sS'Wendell'
p9180
g1
((lp9181
g6
atp9182
Rp9183
sS'Gardiner'
p9184
g1
((lp9185
g6
atp9186
Rp9187
sS'Denham'
p9188
g1
((lp9189
S'Springs'
p9190
atp9191
Rp9192
sS'Robbins'
p9193
g1
((lp9194
g6
atp9195
Rp9196
sS'Opa-locka'
p9197
g1
((lp9198
g6
atp9199
Rp9200
sS'Weirton'
p9201
g1
((lp9202
g6
atp9203
Rp9204
sS'Brockport'
p9205
g1
((lp9206
g6
atp9207
Rp9208
sS'Cedar'
p9209
g1
((lp9210
S'City'
p9211
aS'Hills'
p9212
aS'Rapids'
p9213
aS'Grove'
p9214
aS'Park'
p9215
aS'Lake'
p9216
aS'Falls'
p9217
aS'Hill'
p9218
atp9219
Rp9220
sS'Moss'
p9221
g1
((lp9222
S'Point'
p9223
atp9224
Rp9225
sS'Lubbock'
p9226
g1
((lp9227
g6
atp9228
Rp9229
sS'Floral'
p9230
g1
((lp9231
S'Park'
p9232
atp9233
Rp9234
sS'Moberly'
p9235
g1
((lp9236
g6
atp9237
Rp9238
sS'Princeton'
p9239
g1
((lp9240
g6
atp9241
Rp9242
sS'McKees'
p9243
g1
((lp9244
S'Rocks'
p9245
atp9246
Rp9247
sS'Santaquin'
p9248
g1
((lp9249
g6
atp9250
Rp9251
sS'Corinth'
p9252
g1
((lp9253
g6
atp9254
Rp9255
sS'Mayfield'
p9256
g1
((lp9257
g6
aS'Heights'
p9258
atp9259
Rp9260
sS'Kingsland'
p9261
g1
((lp9262
g6
atp9263
Rp9264
sS'Pico'
p9265
g1
((lp9266
S'Rivera'
p9267
atp9268
Rp9269
sS'Donna'
p9270
g1
((lp9271
g6
atp9272
Rp9273
sS'Rutland'
p9274
g1
((lp9275
g6
atp9276
Rp9277
sS'Sumner'
p9278
g1
((lp9279
g6
atp9280
Rp9281
sS'Fairfax'
p9282
g1
((lp9283
g6
atp9284
Rp9285
sS'Old'
p9286
g1
((lp9287
S'Forge'
p9288
aS'Town'
p9289
aS'Tappan'
p9290
aS'Westbury'
p9291
atp9292
Rp9293
sS'Clover'
p9294
g1
((lp9295
g6
atp9296
Rp9297
sS'Oelwein'
p9298
g1
((lp9299
g6
atp9300
Rp9301
sS'Kimberly'
p9302
g1
((lp9303
g6
atp9304
Rp9305
sS'Winston'
p9306
g1
((lp9307
g6
atp9308
Rp9309
sS'Mountainside'
p9310
g1
((lp9311
g6
atp9312
Rp9313
sS'Garner'
p9314
g1
((lp9315
g6
atp9316
Rp9317
sS'Northbrook'
p9318
g1
((lp9319
g6
atp9320
Rp9321
sS'Salem'
p9322
g1
((lp9323
g6
atp9324
Rp9325
sS'College'
p9326
g1
((lp9327
S'Place'
p9328
aS'Station'
p9329
aS'Park'
p9330
atp9331
Rp9332
sS'Eustis'
p9333
g1
((lp9334
g6
atp9335
Rp9336
sS'Church'
p9337
g1
((lp9338
S'Hill'
p9339
aS'Point'
p9340
atp9341
Rp9342
sS'Lakeport'
p9343
g1
((lp9344
g6
atp9345
Rp9346
sS'Cold'
p9347
g1
((lp9348
S'Spring'
p9349
atp9350
Rp9351
sS'Uhrichsville'
p9352
g1
((lp9353
g6
atp9354
Rp9355
sS'Palmyra'
p9356
g1
((lp9357
g6
atp9358
Rp9359
sS'Bennettsville'
p9360
g1
((lp9361
g6
atp9362
Rp9363
sS'Middlesex'
p9364
g1
((lp9365
g6
atp9366
Rp9367
sS'Healdsburg'
p9368
g1
((lp9369
g6
atp9370
Rp9371
sS'Bismarck'
p9372
g1
((lp9373
g6
atp9374
Rp9375
sS'Cheney'
p9376
g1
((lp9377
g6
atp9378
Rp9379
sS'Oakley'
p9380
g1
((lp9381
g6
atp9382
Rp9383
sS'Pulaski'
p9384
g1
((lp9385
g6
atp9386
Rp9387
sS'Rochelle'
p9388
g1
((lp9389
g6
atp9390
Rp9391
sS'Hitchcock'
p9392
g1
((lp9393
g6
atp9394
Rp9395
sS'DeKalb'
p9396
g1
((lp9397
g6
atp9398
Rp9399
sS'Archdale'
p9400
g1
((lp9401
g6
atp9402
Rp9403
sS'Carterville'
p9404
g1
((lp9405
g6
atp9406
Rp9407
sS'Plaquemine'
p9408
g1
((lp9409
g6
atp9410
Rp9411
sS'Bothell'
p9412
g1
((lp9413
g6
atp9414
Rp9415
sS'Foley'
p9416
g1
((lp9417
g6
atp9418
Rp9419
sS'Steger'
p9420
g1
((lp9421
g6
atp9422
Rp9423
sS'Norwich'
p9424
g1
((lp9425
g6
atp9426
Rp9427
sS'Hillsboro'
p9428
g1
((lp9429
g6
atp9430
Rp9431
sS'Emmaus'
p9432
g1
((lp9433
g6
atp9434
Rp9435
sS'Ashdown'
p9436
g1
((lp9437
g6
atp9438
Rp9439
sS'Hemet'
p9440
g1
((lp9441
g6
atp9442
Rp9443
sS'Faribault'
p9444
g1
((lp9445
g6
atp9446
Rp9447
sS'Williams'
p9448
g1
((lp9449
g6
atp9450
Rp9451
sS'Waukesha'
p9452
g1
((lp9453
g6
atp9454
Rp9455
sS'Edgewood'
p9456
g1
((lp9457
g6
atp9458
Rp9459
sS'Kermit'
p9460
g1
((lp9461
g6
atp9462
Rp9463
sS'Mapleton'
p9464
g1
((lp9465
g6
atp9466
Rp9467
sS'Hanford'
p9468
g1
((lp9469
g6
atp9470
Rp9471
sS'Clive'
p9472
g1
((lp9473
g6
atp9474
Rp9475
sS'Cheviot'
p9476
g1
((lp9477
g6
atp9478
Rp9479
sS'Monessen'
p9480
g1
((lp9481
g6
atp9482
Rp9483
sS'Raleigh'
p9484
g1
((lp9485
g6
atp9486
Rp9487
sS'Glendale'
p9488
g1
((lp9489
g6
aS'Heights'
p9490
atp9491
Rp9492
sS'Delafield'
p9493
g1
((lp9494
g6
atp9495
Rp9496
sS'Munroe'
p9497
g1
((lp9498
S'Falls'
p9499
atp9500
Rp9501
sS'Clarkston'
p9502
g1
((lp9503
g6
atp9504
Rp9505
sS'Corte'
p9506
g1
((lp9507
S'Madera'
p9508
atp9509
Rp9510
sS'Oswego'
p9511
g1
((lp9512
g6
atp9513
Rp9514
sS'Smyrna'
p9515
g1
((lp9516
g6
atp9517
Rp9518
sS'Minneola'
p9519
g1
((lp9520
g6
atp9521
Rp9522
sS'Piqua'
p9523
g1
((lp9524
g6
atp9525
Rp9526
sS'Monona'
p9527
g1
((lp9528
g6
atp9529
Rp9530
sS'Chardon'
p9531
g1
((lp9532
g6
atp9533
Rp9534
sS'Grafton'
p9535
g1
((lp9536
g6
atp9537
Rp9538
sS'Roanoke'
p9539
g1
((lp9540
g6
aS'Rapids'
p9541
atp9542
Rp9543
sS'Albany'
p9544
g1
((lp9545
g6
atp9546
Rp9547
sS'Snohomish'
p9548
g1
((lp9549
g6
atp9550
Rp9551
sS'Shelton'
p9552
g1
((lp9553
g6
atp9554
Rp9555
sS'Fuquay-Varina'
p9556
g1
((lp9557
g6
atp9558
Rp9559
sS'Rockwood'
p9560
g1
((lp9561
g6
atp9562
Rp9563
sS'Bremen'
p9564
g1
((lp9565
g6
atp9566
Rp9567
sS'Washougal'
p9568
g1
((lp9569
g6
atp9570
Rp9571
sS'Titusville'
p9572
g1
((lp9573
g6
atp9574
Rp9575
sS'Hobbs'
p9576
g1
((lp9577
g6
atp9578
Rp9579
sS'Sallisaw'
p9580
g1
((lp9581
g6
atp9582
Rp9583
sS'Barling'
p9584
g1
((lp9585
g6
atp9586
Rp9587
sS'Eagan'
p9588
g1
((lp9589
g6
atp9590
Rp9591
sS'Arab'
p9592
g1
((lp9593
g6
atp9594
Rp9595
sS'Wilmette'
p9596
g1
((lp9597
g6
atp9598
Rp9599
sS'Jonesborough'
p9600
g1
((lp9601
g6
atp9602
Rp9603
sS'Pismo'
p9604
g1
((lp9605
S'Beach'
p9606
atp9607
Rp9608
sS'Rockledge'
p9609
g1
((lp9610
g6
atp9611
Rp9612
sS'Champaign'
p9613
g1
((lp9614
g6
atp9615
Rp9616
sS'Rahway'
p9617
g1
((lp9618
g6
atp9619
Rp9620
sS'Edinboro'
p9621
g1
((lp9622
g6
atp9623
Rp9624
sS'Pompano'
p9625
g1
((lp9626
S'Beach'
p9627
atp9628
Rp9629
sS'Berkeley'
p9630
g1
((lp9631
g6
atp9632
Rp9633
sS'Marina'
p9634
g1
((lp9635
g6
atp9636
Rp9637
sS'Coweta'
p9638
g1
((lp9639
g6
atp9640
Rp9641
sS'Chaska'
p9642
g1
((lp9643
g6
atp9644
Rp9645
sS'Walnut'
p9646
g1
((lp9647
g6
aS'Ridge'
p9648
aS'Creek'
p9649
atp9650
Rp9651
sS'DuBois'
p9652
g1
((lp9653
g6
atp9654
Rp9655
sS'Breaux'
p9656
g1
((lp9657
S'Bridge'
p9658
atp9659
Rp9660
sS'Eagar'
p9661
g1
((lp9662
g6
atp9663
Rp9664
sS'Lower'
p9665
g1
((lp9666
S'Burrell'
p9667
atp9668
Rp9669
sS'Grandville'
p9670
g1
((lp9671
g6
atp9672
Rp9673
sS'Fellsmere'
p9674
g1
((lp9675
g6
atp9676
Rp9677
sS'Truth'
p9678
g1
((lp9679
S'or'
p9680
atp9681
Rp9682
sS'Fernley'
p9683
g1
((lp9684
g6
atp9685
Rp9686
sS'Attleboro'
p9687
g1
((lp9688
g6
atp9689
Rp9690
sS'Dunedin'
p9691
g1
((lp9692
g6
atp9693
Rp9694
sS'Waltham'
p9695
g1
((lp9696
g6
atp9697
Rp9698
sS'Coffeyville'
p9699
g1
((lp9700
g6
atp9701
Rp9702
sS'Alexandria'
p9703
g1
((lp9704
g6
atp9705
Rp9706
sS'Cincinnati'
p9707
g1
((lp9708
g6
atp9709
Rp9710
sS'Salida'
p9711
g1
((lp9712
g6
atp9713
Rp9714
sS'Fond'
p9715
g1
((lp9716
S'du'
p9717
atp9718
Rp9719
sS'Scottsville'
p9720
g1
((lp9721
g6
atp9722
Rp9723
sS'Bradley'
p9724
g1
((lp9725
g6
aS'Beach'
p9726
atp9727
Rp9728
sS'Colona'
p9729
g1
((lp9730
g6
atp9731
Rp9732
sS'Safety'
p9733
g1
((lp9734
S'Harbor'
p9735
atp9736
Rp9737
sS'Corsicana'
p9738
g1
((lp9739
g6
atp9740
Rp9741
sS'Guymon'
p9742
g1
((lp9743
g6
atp9744
Rp9745
sS'Little'
p9746
g1
((lp9747
S'Canada'
p9748
aS'Chute'
p9749
aS'Elm'
p9750
aS'Falls'
p9751
aS'Rock'
p9752
aS'Ferry'
p9753
aS'Silver'
p9754
atp9755
Rp9756
sS'Lemon'
p9757
g1
((lp9758
S'Grove'
p9759
atp9760
Rp9761
sS'Gulf'
p9762
g1
((lp9763
S'Shores'
p9764
aS'Breeze'
p9765
atp9766
Rp9767
sS'Lynn'
p9768
g1
((lp9769
S'Haven'
p9770
atp9771
Rp9772
sS'Phenix'
p9773
g1
((lp9774
S'City'
p9775
atp9776
Rp9777
sS'Dania'
p9778
g1
((lp9779
S'Beach'
p9780
atp9781
Rp9782
sS'Breckenridge'
p9783
g1
((lp9784
g6
aS'Hills'
p9785
atp9786
Rp9787
sS'Melrose'
p9788
g1
((lp9789
g6
aS'Park'
p9790
atp9791
Rp9792
sS'Massena'
p9793
g1
((lp9794
g6
atp9795
Rp9796
sS'Napa'
p9797
g1
((lp9798
g6
atp9799
Rp9800
sS'Beachwood'
p9801
g1
((lp9802
g6
atp9803
Rp9804
sS'Riverview'
p9805
g1
((lp9806
g6
atp9807
Rp9808
sS'Cleburne'
p9809
g1
((lp9810
g6
atp9811
Rp9812
sS'Muncie'
p9813
g1
((lp9814
g6
atp9815
Rp9816
sS'Perrysburg'
p9817
g1
((lp9818
g6
atp9819
Rp9820
sS'Norristown'
p9821
g1
((lp9822
g6
atp9823
Rp9824
sS'Murfreesboro'
p9825
g1
((lp9826
g6
atp9827
Rp9828
sS'Casselberry'
p9829
g1
((lp9830
g6
atp9831
Rp9832
sS'Moscow'
p9833
g1
((lp9834
g6
atp9835
Rp9836
sS'Albuquerque'
p9837
g1
((lp9838
g6
atp9839
Rp9840
sS'Seguin'
p9841
g1
((lp9842
g6
atp9843
Rp9844
sS'Colleyville'
p9845
g1
((lp9846
g6
atp9847
Rp9848
sS'Cloquet'
p9849
g1
((lp9850
g6
atp9851
Rp9852
sS'Winters'
p9853
g1
((lp9854
g6
atp9855
Rp9856
sS'Lynchburg'
p9857
g1
((lp9858
g6
atp9859
Rp9860
sS'Ambridge'
p9861
g1
((lp9862
g6
atp9863
Rp9864
sS'Fruita'
p9865
g1
((lp9866
g6
atp9867
Rp9868
sS'Sandersville'
p9869
g1
((lp9870
g6
atp9871
Rp9872
sS'Copperas'
p9873
g1
((lp9874
S'Cove'
p9875
atp9876
Rp9877
sS'Riviera'
p9878
g1
((lp9879
S'Beach'
p9880
atp9881
Rp9882
sS'Neosho'
p9883
g1
((lp9884
g6
atp9885
Rp9886
sS'Milwaukie'
p9887
g1
((lp9888
g6
atp9889
Rp9890
sS'Davie'
p9891
g1
((lp9892
g6
atp9893
Rp9894
sS'Ludlow'
p9895
g1
((lp9896
g6
atp9897
Rp9898
sS'Newman'
p9899
g1
((lp9900
g6
atp9901
Rp9902
sS'Bartow'
p9903
g1
((lp9904
g6
atp9905
Rp9906
sS'Pinellas'
p9907
g1
((lp9908
S'Park'
p9909
atp9910
Rp9911
sS'Davis'
p9912
g1
((lp9913
g6
atp9914
Rp9915
sS'Philomath'
p9916
g1
((lp9917
g6
atp9918
Rp9919
sS'Waunakee'
p9920
g1
((lp9921
g6
atp9922
Rp9923
sS'Oviedo'
p9924
g1
((lp9925
g6
atp9926
Rp9927
sS'Alvin'
p9928
g1
((lp9929
g6
atp9930
Rp9931
sS'Haddonfield'
p9932
g1
((lp9933
g6
atp9934
Rp9935
sS'Altus'
p9936
g1
((lp9937
g6
atp9938
Rp9939
sS'Chula'
p9940
g1
((lp9941
S'Vista'
p9942
atp9943
Rp9944
sS'Cocoa'
p9945
g1
((lp9946
g6
aS'Beach'
p9947
atp9948
Rp9949
sS'Roy'
p9950
g1
((lp9951
g6
atp9952
Rp9953
sS'Mukilteo'
p9954
g1
((lp9955
g6
atp9956
Rp9957
sS'Cusseta'
p9958
g1
((lp9959
g6
atp9960
Rp9961
sS'Winnetka'
p9962
g1
((lp9963
g6
atp9964
Rp9965
sS'Grain'
p9966
g1
((lp9967
S'Valley'
p9968
atp9969
Rp9970
sS'Keizer'
p9971
g1
((lp9972
g6
atp9973
Rp9974
sS'Pahokee'
p9975
g1
((lp9976
g6
atp9977
Rp9978
sS'Elizabethtown'
p9979
g1
((lp9980
g6
atp9981
Rp9982
sS'Greencastle'
p9983
g1
((lp9984
g6
atp9985
Rp9986
sS'Elk'
p9987
g1
((lp9988
S'Grove'
p9989
aS'City'
p9990
aS'River'
p9991
atp9992
Rp9993
sS'Pasco'
p9994
g1
((lp9995
g6
atp9996
Rp9997
sS'Emporia'
p9998
g1
((lp9999
g6
atp10000
Rp10001
sS'Midland'
p10002
g1
((lp10003
g6
aS'Park'
p10004
atp10005
Rp10006
sS'Carthage'
p10007
g1
((lp10008
g6
atp10009
Rp10010
sS'Ponca'
p10011
g1
((lp10012
S'City'
p10013
atp10014
Rp10015
sS'Urbana'
p10016
g1
((lp10017
g6
atp10018
Rp10019
sS'Somers'
p10020
g1
((lp10021
S'Point'
p10022
atp10023
Rp10024
sS'Roscoe'
p10025
g1
((lp10026
g6
atp10027
Rp10028
sS'Savoy'
p10029
g1
((lp10030
g6
atp10031
Rp10032
sS'Wickenburg'
p10033
g1
((lp10034
g6
atp10035
Rp10036
sS'Balch'
p10037
g1
((lp10038
S'Springs'
p10039
atp10040
Rp10041
sS'Evansdale'
p10042
g1
((lp10043
g6
atp10044
Rp10045
sS'Corvallis'
p10046
g1
((lp10047
g6
atp10048
Rp10049
sS'Thomasville'
p10050
g1
((lp10051
g6
atp10052
Rp10053
sS'Ecorse'
p10054
g1
((lp10055
g6
atp10056
Rp10057
sS'Racine'
p10058
g1
((lp10059
g6
atp10060
Rp10061
sS'Shively'
p10062
g1
((lp10063
g6
atp10064
Rp10065
sS'Boulder'
p10066
g1
((lp10067
g6
aS'City'
p10068
atp10069
Rp10070
sS'Coshocton'
p10071
g1
((lp10072
g6
atp10073
Rp10074
sS'Findlay'
p10075
g1
((lp10076
g6
atp10077
Rp10078
sS'Norman'
p10079
g1
((lp10080
g6
atp10081
Rp10082
sS'Normal'
p10083
g1
((lp10084
g6
atp10085
Rp10086
sS'Orting'
p10087
g1
((lp10088
g6
atp10089
Rp10090
sS'Anthony'
p10091
g1
((lp10092
g6
atp10093
Rp10094
sS'McLoud'
p10095
g1
((lp10096
g6
atp10097
Rp10098
sS'Bryan'
p10099
g1
((lp10100
g6
atp10101
Rp10102
sS'Abbeville'
p10103
g1
((lp10104
g6
atp10105
Rp10106
sS'Mahanoy'
p10107
g1
((lp10108
S'City'
p10109
atp10110
Rp10111
sS'Hueytown'
p10112
g1
((lp10113
g6
atp10114
Rp10115
sS'Kankakee'
p10116
g1
((lp10117
g6
atp10118
Rp10119
sS'Natchez'
p10120
g1
((lp10121
g6
atp10122
Rp10123
sS'Osceola'
p10124
g1
((lp10125
g6
atp10126
Rp10127
sS'Franklin'
p10128
g1
((lp10129
g6
aS'Park'
p10130
aS'Lakes'
p10131
atp10132
Rp10133
sS'Adrian'
p10134
g1
((lp10135
g6
atp10136
Rp10137
sS'Terrell'
p10138
g1
((lp10139
g6
aS'Hills'
p10140
atp10141
Rp10142
sS'Lewiston'
p10143
g1
((lp10144
g6
atp10145
Rp10146
sS'Austin'
p10147
g1
((lp10148
g6
atp10149
Rp10150
sS'Reedsburg'
p10151
g1
((lp10152
g6
atp10153
Rp10154
sS'Bell'
p10155
g1
((lp10156
g6
aS'Gardens'
p10157
atp10158
Rp10159
sS'Lawrenceville'
p10160
g1
((lp10161
g6
atp10162
Rp10163
sS'Daly'
p10164
g1
((lp10165
S'City'
p10166
atp10167
Rp10168
sS'Buena'
p10169
g1
((lp10170
S'Vista'
p10171
aS'Park'
p10172
atp10173
Rp10174
sS'Ironwood'
p10175
g1
((lp10176
g6
atp10177
Rp10178
sS'Murray'
p10179
g1
((lp10180
g6
atp10181
Rp10182
sS'Thatcher'
p10183
g1
((lp10184
g6
atp10185
Rp10186
sS'Goleta'
p10187
g1
((lp10188
g6
atp10189
Rp10190
sS'Helena'
p10191
g1
((lp10192
g6
atp10193
Rp10194
sS'Stayton'
p10195
g1
((lp10196
g6
atp10197
Rp10198
sS'Presque'
p10199
g1
((lp10200
S'Isle'
p10201
atp10202
Rp10203
sS'Florence'
p10204
g1
((lp10205
g6
atp10206
Rp10207
sS'Sahuarita'
p10208
g1
((lp10209
g6
atp10210
Rp10211
sS'Wylie'
p10212
g1
((lp10213
g6
atp10214
Rp10215
sS'Mauldin'
p10216
g1
((lp10217
g6
atp10218
Rp10219
sS'Apex'
p10220
g1
((lp10221
g6
atp10222
Rp10223
sS'Selmer'
p10224
g1
((lp10225
g6
atp10226
Rp10227
sS'Morrilton'
p10228
g1
((lp10229
g6
atp10230
Rp10231
sS'Eldorado'
p10232
g1
((lp10233
g6
atp10234
Rp10235
sS'Ellwood'
p10236
g1
((lp10237
S'City'
p10238
atp10239
Rp10240
sS'Hampshire'
p10241
g1
((lp10242
g6
atp10243
Rp10244
sS'Willits'
p10245
g1
((lp10246
g6
atp10247
Rp10248
sS'International'
p10249
g1
((lp10250
S'Falls'
p10251
atp10252
Rp10253
sS'Sierra'
p10254
g1
((lp10255
S'Madre'
p10256
aS'Vista'
p10257
atp10258
Rp10259
sS'Springboro'
p10260
g1
((lp10261
g6
atp10262
Rp10263
sS'Springhill'
p10264
g1
((lp10265
g6
atp10266
Rp10267
sS'Manhattan'
p10268
g1
((lp10269
g6
aS'Beach'
p10270
atp10271
Rp10272
sS'Versailles'
p10273
g1
((lp10274
g6
atp10275
Rp10276
sS'Hewitt'
p10277
g1
((lp10278
g6
atp10279
Rp10280
sS'Haines'
p10281
g1
((lp10282
S'City'
p10283
atp10284
Rp10285
sS'Bel'
p10286
g1
((lp10287
S'Aire'
p10288
aS'Air'
p10289
atp10290
Rp10291
sS'Hazel'
p10292
g1
((lp10293
S'Crest'
p10294
aS'Park'
p10295
atp10296
Rp10297
sS'Osawatomie'
p10298
g1
((lp10299
g6
atp10300
Rp10301
sS'Belvidere'
p10302
g1
((lp10303
g6
atp10304
Rp10305
sS'Andrews'
p10306
g1
((lp10307
g6
atp10308
Rp10309
sS'Vienna'
p10310
g1
((lp10311
g6
atp10312
Rp10313
sS'Laguna'
p10314
g1
((lp10315
S'Niguel'
p10316
aS'Woods'
p10317
aS'Beach'
p10318
aS'Hills'
p10319
atp10320
Rp10321
sS'Solvay'
p10322
g1
((lp10323
g6
atp10324
Rp10325
sS'Lincolnwood'
p10326
g1
((lp10327
g6
atp10328
Rp10329
sS'Crestview'
p10330
g1
((lp10331
g6
atp10332
Rp10333
sS'Casa'
p10334
g1
((lp10335
S'Grande'
p10336
atp10337
Rp10338
sS'Wauconda'
p10339
g1
((lp10340
g6
atp10341
Rp10342
sS'Northglenn'
p10343
g1
((lp10344
g6
atp10345
Rp10346
sS'Wahpeton'
p10347
g1
((lp10348
g6
atp10349
Rp10350
sS'Wanaque'
p10351
g1
((lp10352
g6
atp10353
Rp10354
sS'Woodcliff'
p10355
g1
((lp10356
S'Lake'
p10357
atp10358
Rp10359
sS'Atherton'
p10360
g1
((lp10361
g6
atp10362
Rp10363
sS'Longwood'
p10364
g1
((lp10365
g6
atp10366
Rp10367
sS'Derby'
p10368
g1
((lp10369
g6
atp10370
Rp10371
sS'Teague'
p10372
g1
((lp10373
g6
atp10374
Rp10375
sS'Emmett'
p10376
g1
((lp10377
g6
atp10378
Rp10379
sS'Riverdale'
p10380
g1
((lp10381
g6
aS'Park'
p10382
atp10383
Rp10384
sS'Taft'
p10385
g1
((lp10386
g6
atp10387
Rp10388
sS'Covina'
p10389
g1
((lp10390
g6
atp10391
Rp10392
sS'Roseland'
p10393
g1
((lp10394
g6
atp10395
Rp10396
sS'Taunton'
p10397
g1
((lp10398
g6
atp10399
Rp10400
sS'Worthington'
p10401
g1
((lp10402
g6
atp10403
Rp10404
sS'Stamford'
p10405
g1
((lp10406
g6
atp10407
Rp10408
sS'Crete'
p10409
g1
((lp10410
g6
atp10411
Rp10412
sS'Oakland'
p10413
g1
((lp10414
g6
aS'Park'
p10415
atp10416
Rp10417
sS'Secaucus'
p10418
g1
((lp10419
g6
atp10420
Rp10421
sS'Burien'
p10422
g1
((lp10423
g6
atp10424
Rp10425
sS'McAlester'
p10426
g1
((lp10427
g6
atp10428
Rp10429
sS'Progreso'
p10430
g1
((lp10431
g6
atp10432
Rp10433
sS'Harper'
p10434
g1
((lp10435
S'Woods'
p10436
atp10437
Rp10438
sS'Darby'
p10439
g1
((lp10440
g6
atp10441
Rp10442
sS'Beeville'
p10443
g1
((lp10444
g6
atp10445
Rp10446
sS'Pell'
p10447
g1
((lp10448
S'City'
p10449
atp10450
Rp10451
sS'Leawood'
p10452
g1
((lp10453
g6
atp10454
Rp10455
sS'Crestwood'
p10456
g1
((lp10457
g6
atp10458
Rp10459
sS'Malverne'
p10460
g1
((lp10461
g6
atp10462
Rp10463
sS'Isle'
p10464
g1
((lp10465
S'of'
p10466
atp10467
Rp10468
sS'Dodge'
p10469
g1
((lp10470
S'City'
p10471
atp10472
Rp10473
sS'Bessemer'
p10474
g1
((lp10475
g6
aS'City'
p10476
atp10477
Rp10478
sS'Freeburg'
p10479
g1
((lp10480
g6
atp10481
Rp10482
sS'Platteville'
p10483
g1
((lp10484
g6
atp10485
Rp10486
sS'Alpena'
p10487
g1
((lp10488
g6
atp10489
Rp10490
sS'Willoughby'
p10491
g1
((lp10492
g6
aS'Hills'
p10493
atp10494
Rp10495
sS'Harrisville'
p10496
g1
((lp10497
g6
atp10498
Rp10499
sS'Waynesboro'
p10500
g1
((lp10501
g6
atp10502
Rp10503
sS'Sulphur'
p10504
g1
((lp10505
g6
aS'Springs'
p10506
atp10507
Rp10508
sS'Arroyo'
p10509
g1
((lp10510
S'Grande'
p10511
atp10512
Rp10513
sS'Williamston'
p10514
g1
((lp10515
g6
atp10516
Rp10517
sS'Bradenton'
p10518
g1
((lp10519
g6
atp10520
Rp10521
sS'Holland'
p10522
g1
((lp10523
g6
atp10524
Rp10525
sS'Albion'
p10526
g1
((lp10527
g6
atp10528
Rp10529
sS'Calimesa'
p10530
g1
((lp10531
g6
atp10532
Rp10533
sS'Morrison'
p10534
g1
((lp10535
g6
atp10536
Rp10537
sS'Crafton'
p10538
g1
((lp10539
g6
atp10540
Rp10541
sS'Clarksville'
p10542
g1
((lp10543
g6
atp10544
Rp10545
sS'Chesterfield'
p10546
g1
((lp10547
g6
atp10548
Rp10549
sS'Chico'
p10550
g1
((lp10551
g6
atp10552
Rp10553
sS'Medford'
p10554
g1
((lp10555
g6
atp10556
Rp10557
sS'Charlotte'
p10558
g1
((lp10559
g6
atp10560
Rp10561
sS'Edina'
p10562
g1
((lp10563
g6
atp10564
Rp10565
sS'Ste.'
p10566
g1
((lp10567
S'Genevieve'
p10568
atp10569
Rp10570
sS'Grinnell'
p10571
g1
((lp10572
g6
atp10573
Rp10574
sS'Hollidaysburg'
p10575
g1
((lp10576
g6
atp10577
Rp10578
sS'Somerdale'
p10579
g1
((lp10580
g6
atp10581
Rp10582
sS'Hudsonville'
p10583
g1
((lp10584
g6
atp10585
Rp10586
sS'Schuylkill'
p10587
g1
((lp10588
S'Haven'
p10589
atp10590
Rp10591
sS'Eldon'
p10592
g1
((lp10593
g6
atp10594
Rp10595
sS'Iola'
p10596
g1
((lp10597
g6
atp10598
Rp10599
sS'Enoch'
p10600
g1
((lp10601
g6
atp10602
Rp10603
sS'Simi'
p10604
g1
((lp10605
S'Valley'
p10606
atp10607
Rp10608
sS'Seattle'
p10609
g1
((lp10610
g6
atp10611
Rp10612
sS'Griffith'
p10613
g1
((lp10614
g6
atp10615
Rp10616
sS'Bronxville'
p10617
g1
((lp10618
g6
atp10619
Rp10620
sS'Winchester'
p10621
g1
((lp10622
g6
atp10623
Rp10624
sS'Howard'
p10625
g1
((lp10626
g6
atp10627
Rp10628
sS'Allentown'
p10629
g1
((lp10630
g6
atp10631
Rp10632
sS'Gunnison'
p10633
g1
((lp10634
g6
atp10635
Rp10636
sS'Bellflower'
p10637
g1
((lp10638
g6
atp10639
Rp10640
sS'Long'
p10641
g1
((lp10642
S'Grove'
p10643
aS'Beach'
p10644
aS'Branch'
p10645
aS'View'
p10646
atp10647
Rp10648
sS'Albemarle'
p10649
g1
((lp10650
g6
atp10651
Rp10652
sS'State'
p10653
g1
((lp10654
S'College'
p10655
atp10656
Rp10657
sS'Newberg'
p10658
g1
((lp10659
g6
atp10660
Rp10661
sS'Wamego'
p10662
g1
((lp10663
g6
atp10664
Rp10665
sS'Swainsboro'
p10666
g1
((lp10667
g6
atp10668
Rp10669
sS'Bucyrus'
p10670
g1
((lp10671
g6
atp10672
Rp10673
sS'Maryland'
p10674
g1
((lp10675
S'Heights'
p10676
atp10677
Rp10678
sS'Raton'
p10679
g1
((lp10680
g6
atp10681
Rp10682
sS'Zion'
p10683
g1
((lp10684
g6
atp10685
Rp10686
sS'Vestavia'
p10687
g1
((lp10688
S'Hills'
p10689
atp10690
Rp10691
sS'Oceanside'
p10692
g1
((lp10693
g6
atp10694
Rp10695
sS'Hammond'
p10696
g1
((lp10697
g6
atp10698
Rp10699
sS'Waukegan'
p10700
g1
((lp10701
g6
atp10702
Rp10703
sS'Easthampton'
p10704
g1
((lp10705
g6
atp10706
Rp10707
sS'Lino'
p10708
g1
((lp10709
S'Lakes'
p10710
atp10711
Rp10712
sS'Oro'
p10713
g1
((lp10714
S'Valley'
p10715
atp10716
Rp10717
sS'Baker'
p10718
g1
((lp10719
g6
aS'City'
p10720
atp10721
Rp10722
sS'Highlands'
p10723
g1
((lp10724
g6
atp10725
Rp10726
sS'Houghton'
p10727
g1
((lp10728
g6
atp10729
Rp10730
sS'Kerrville'
p10731
g1
((lp10732
g6
atp10733
Rp10734
sS'Greer'
p10735
g1
((lp10736
g6
atp10737
Rp10738
sS'Rothschild'
p10739
g1
((lp10740
g6
atp10741
Rp10742
sS'Cedartown'
p10743
g1
((lp10744
g6
atp10745
Rp10746
sS'Missoula'
p10747
g1
((lp10748
g6
atp10749
Rp10750
sS'Bardstown'
p10751
g1
((lp10752
g6
atp10753
Rp10754
sS'Prior'
p10755
g1
((lp10756
S'Lake'
p10757
atp10758
Rp10759
sS'Green'
p10760
g1
((lp10761
g6
aS'River'
p10762
aS'Tree'
p10763
aS'Cove'
p10764
aS'Bay'
p10765
atp10766
Rp10767
sS'Adamsville'
p10768
g1
((lp10769
g6
atp10770
Rp10771
sS'Clay'
p10772
g1
((lp10773
g6
aS'Center'
p10774
atp10775
Rp10776
sS'Opp'
p10777
g1
((lp10778
g6
atp10779
Rp10780
sS'Payette'
p10781
g1
((lp10782
g6
atp10783
Rp10784
sS'Revere'
p10785
g1
((lp10786
g6
atp10787
Rp10788
sS'Nevada'
p10789
g1
((lp10790
g6
atp10791
Rp10792
sS'Grandview'
p10793
g1
((lp10794
g6
aS'Heights'
p10795
atp10796
Rp10797
sS'Sealy'
p10798
g1
((lp10799
g6
atp10800
Rp10801
sS'Moultrie'
p10802
g1
((lp10803
g6
atp10804
Rp10805
sS'Eatontown'
p10806
g1
((lp10807
g6
atp10808
Rp10809
sS'Methuen'
p10810
g1
((lp10811
g6
atp10812
Rp10813
sS'Palm'
p10814
g1
((lp10815
S'Springs'
p10816
aS'Coast'
p10817
aS'Beach'
p10818
aS'Desert'
p10819
aS'Bay'
p10820
atp10821
Rp10822
sS'Palo'
p10823
g1
((lp10824
S'Alto'
p10825
atp10826
Rp10827
sS'Bastrop'
p10828
g1
((lp10829
g6
atp10830
Rp10831
sS'Carlsbad'
p10832
g1
((lp10833
g6
atp10834
Rp10835
sS'Gardendale'
p10836
g1
((lp10837
g6
atp10838
Rp10839
sS'Mountain'
p10840
g1
((lp10841
S'Grove'
p10842
aS'Home'
p10843
aS'Brook'
p10844
aS'View'
p10845
atp10846
Rp10847
sS'Magnolia'
p10848
g1
((lp10849
g6
atp10850
Rp10851
sS'Munster'
p10852
g1
((lp10853
g6
atp10854
Rp10855
sS'Pigeon'
p10856
g1
((lp10857
S'Forge'
p10858
atp10859
Rp10860
sS'Hellertown'
p10861
g1
((lp10862
g6
atp10863
Rp10864
sS'Clearwater'
p10865
g1
((lp10866
g6
atp10867
Rp10868
sS'Everman'
p10869
g1
((lp10870
g6
atp10871
Rp10872
sS'Clovis'
p10873
g1
((lp10874
g6
atp10875
Rp10876
sS'Middleburg'
p10877
g1
((lp10878
S'Heights'
p10879
atp10880
Rp10881
sS'Kilgore'
p10882
g1
((lp10883
g6
atp10884
Rp10885
sS'Shorewood'
p10886
g1
((lp10887
g6
atp10888
Rp10889
sS'Hazlehurst'
p10890
g1
((lp10891
g6
atp10892
Rp10893
sS'Indianapolis'
p10894
g1
((lp10895
g6
atp10896
Rp10897
sS'Punxsutawney'
p10898
g1
((lp10899
g6
atp10900
Rp10901
sS'Valdosta'
p10902
g1
((lp10903
g6
atp10904
Rp10905
sS'Eastman'
p10906
g1
((lp10907
g6
atp10908
Rp10909
sS'Lathrop'
p10910
g1
((lp10911
g6
atp10912
Rp10913
sS'Memphis'
p10914
g1
((lp10915
g6
atp10916
Rp10917
sS'Hooper'
p10918
g1
((lp10919
g6
atp10920
Rp10921
sS'Edenton'
p10922
g1
((lp10923
g6
atp10924
Rp10925
sS'Glencoe'
p10926
g1
((lp10927
g6
atp10928
Rp10929
sS'Plain'
p10930
g1
((lp10931
S'City'
p10932
atp10933
Rp10934
sS'Gun'
p10935
g1
((lp10936
S'Barrel'
p10937
atp10938
Rp10939
sS'Calhoun'
p10940
g1
((lp10941
g6
atp10942
Rp10943
sS'Roxboro'
p10944
g1
((lp10945
g6
atp10946
Rp10947
sS'Hiawatha'
p10948
g1
((lp10949
g6
atp10950
Rp10951
sS'Ligonier'
p10952
g1
((lp10953
g6
atp10954
Rp10955
sS'Seagoville'
p10956
g1
((lp10957
g6
atp10958
Rp10959
sS'Truckee'
p10960
g1
((lp10961
g6
atp10962
Rp10963
sS'Monterey'
p10964
g1
((lp10965
g6
aS'Park'
p10966
atp10967
Rp10968
sS'Calumet'
p10969
g1
((lp10970
S'City'
p10971
aS'Park'
p10972
atp10973
Rp10974
sS'Oxnard'
p10975
g1
((lp10976
g6
atp10977
Rp10978
sS'Centerton'
p10979
g1
((lp10980
g6
atp10981
Rp10982
sS'Aventura'
p10983
g1
((lp10984
g6
atp10985
Rp10986
sS'Birmingham'
p10987
g1
((lp10988
g6
atp10989
Rp10990
sS'Coldwater'
p10991
g1
((lp10992
g6
atp10993
Rp10994
sS'Buckeye'
p10995
g1
((lp10996
g6
atp10997
Rp10998
sS'Sachse'
p10999
g1
((lp11000
g6
atp11001
Rp11002
sS'Hattiesburg'
p11003
g1
((lp11004
g6
atp11005
Rp11006
sS'Starke'
p11007
g1
((lp11008
g6
atp11009
Rp11010
sS'Weslaco'
p11011
g1
((lp11012
g6
atp11013
Rp11014
sS'Chestertown'
p11015
g1
((lp11016
g6
atp11017
Rp11018
sS'Annapolis'
p11019
g1
((lp11020
g6
atp11021
Rp11022
sS'Utica'
p11023
g1
((lp11024
g6
atp11025
Rp11026
sS'Niceville'
p11027
g1
((lp11028
g6
atp11029
Rp11030
sS'Tuscaloosa'
p11031
g1
((lp11032
g6
atp11033
Rp11034
sS'Tooele'
p11035
g1
((lp11036
g6
atp11037
Rp11038
sS'Kentwood'
p11039
g1
((lp11040
g6
atp11041
Rp11042
sS'Lynden'
p11043
g1
((lp11044
g6
atp11045
Rp11046
sS'Clayton'
p11047
g1
((lp11048
g6
atp11049
Rp11050
sS'Edgerton'
p11051
g1
((lp11052
g6
atp11053
Rp11054
sS'Holladay'
p11055
g1
((lp11056
g6
atp11057
Rp11058
sS'Stafford'
p11059
g1
((lp11060
g6
atp11061
Rp11062
sS'Woodlake'
p11063
g1
((lp11064
g6
atp11065
Rp11066
sS'Snellville'
p11067
g1
((lp11068
g6
atp11069
Rp11070
sS'Keansburg'
p11071
g1
((lp11072
g6
atp11073
Rp11074
sS'Ringwood'
p11075
g1
((lp11076
g6
atp11077
Rp11078
sS'Nelsonville'
p11079
g1
((lp11080
g6
atp11081
Rp11082
sS'Tonawanda'
p11083
g1
((lp11084
g6
atp11085
Rp11086
sS'Keyport'
p11087
g1
((lp11088
g6
atp11089
Rp11090
sS'Braselton'
p11091
g1
((lp11092
g6
atp11093
Rp11094
sS'Summerfield'
p11095
g1
((lp11096
g6
atp11097
Rp11098
sS'Pataskala'
p11099
g1
((lp11100
g6
atp11101
Rp11102
sS'Wheeling'
p11103
g1
((lp11104
g6
atp11105
Rp11106
sS'Brielle'
p11107
g1
((lp11108
g6
atp11109
Rp11110
sS'Rhinelander'
p11111
g1
((lp11112
g6
atp11113
Rp11114
sS'Watchung'
p11115
g1
((lp11116
g6
atp11117
Rp11118
sS'Tallahassee'
p11119
g1
((lp11120
g6
atp11121
Rp11122
sS'Apple'
p11123
g1
((lp11124
S'Valley'
p11125
atp11126
Rp11127
sS'Presidio'
p11128
g1
((lp11129
g6
atp11130
Rp11131
sS'Nashua'
p11132
g1
((lp11133
g6
atp11134
Rp11135
sS'Grosse'
p11136
g1
((lp11137
S'Pointe'
p11138
atp11139
Rp11140
sS'Fairmont'
p11141
g1
((lp11142
g6
atp11143
Rp11144
sS'Bethalto'
p11145
g1
((lp11146
g6
atp11147
Rp11148
sS'Salisbury'
p11149
g1
((lp11150
g6
atp11151
Rp11152
sS'Bonne'
p11153
g1
((lp11154
S'Terre'
p11155
atp11156
Rp11157
sS'Kings'
p11158
g1
((lp11159
S'Mountain'
p11160
aS'Point'
p11161
atp11162
Rp11163
sS'Schenectady'
p11164
g1
((lp11165
g6
atp11166
Rp11167
sS'Wilson'
p11168
g1
((lp11169
g6
atp11170
Rp11171
sS'Purcellville'
p11172
g1
((lp11173
g6
atp11174
Rp11175
sS'Dunbar'
p11176
g1
((lp11177
g6
atp11178
Rp11179
sS'Flossmoor'
p11180
g1
((lp11181
g6
atp11182
Rp11183
sS'Gonzales'
p11184
g1
((lp11185
g6
atp11186
Rp11187
sS'Orland'
p11188
g1
((lp11189
g6
aS'Park'
p11190
aS'Hills'
p11191
atp11192
Rp11193
sS'Fitzgerald'
p11194
g1
((lp11195
g6
atp11196
Rp11197
sS'Warwick'
p11198
g1
((lp11199
g6
atp11200
Rp11201
sS'Bluffton'
p11202
g1
((lp11203
g6
atp11204
Rp11205
sS'Stanton'
p11206
g1
((lp11207
g6
atp11208
Rp11209
sS'Maplewood'
p11210
g1
((lp11211
g6
atp11212
Rp11213
sS'Elyria'
p11214
g1
((lp11215
g6
atp11216
Rp11217
sS'Preston'
p11218
g1
((lp11219
g6
atp11220
Rp11221
sS'Fruit'
p11222
g1
((lp11223
S'Heights'
p11224
atp11225
Rp11226
sS'Conroe'
p11227
g1
((lp11228
g6
atp11229
Rp11230
sS'Twentynine'
p11231
g1
((lp11232
S'Palms'
p11233
atp11234
Rp11235
sS'Lauderdale-by-the-Sea'
p11236
g1
((lp11237
g6
atp11238
Rp11239
sS'Colton'
p11240
g1
((lp11241
g6
atp11242
Rp11243
sS'Miami'
p11244
g1
((lp11245
g6
aS'Lakes'
p11246
aS'Shores'
p11247
aS'Springs'
p11248
aS'Beach'
p11249
aS'Gardens'
p11250
atp11251
Rp11252
sS'Lorain'
p11253
g1
((lp11254
g6
atp11255
Rp11256
sS'Shafter'
p11257
g1
((lp11258
g6
atp11259
Rp11260
sS'Middletown'
p11261
g1
((lp11262
g6
atp11263
Rp11264
sS'Walkersville'
p11265
g1
((lp11266
g6
atp11267
Rp11268
sS'Topeka'
p11269
g1
((lp11270
g6
atp11271
Rp11272
sS'Loves'
p11273
g1
((lp11274
S'Park'
p11275
atp11276
Rp11277
sS'Social'
p11278
g1
((lp11279
S'Circle'
p11280
atp11281
Rp11282
sS'Lynbrook'
p11283
g1
((lp11284
g6
atp11285
Rp11286
sS'Montclair'
p11287
g1
((lp11288
g6
atp11289
Rp11290
sS'Palacios'
p11291
g1
((lp11292
g6
atp11293
Rp11294
sS'Kewanee'
p11295
g1
((lp11296
g6
atp11297
Rp11298
sS'Katy'
p11299
g1
((lp11300
g6
atp11301
Rp11302
sS'San'
p11303
g1
((lp11304
S'Angelo'
p11305
aS'Jose'
p11306
aS'Diego'
p11307
aS'Juan'
p11308
aS'Clemente'
p11309
aS'Bruno'
p11310
aS'Jacinto'
p11311
aS'Francisco'
p11312
aS'Bernardino'
p11313
aS'Marcos'
p11314
aS'Ramon'
p11315
aS'Marino'
p11316
aS'Luis'
p11317
aS'Anselmo'
p11318
aS'Dimas'
p11319
aS'Gabriel'
p11320
aS'Fernando'
p11321
aS'Antonio'
p11322
aS'Rafael'
p11323
aS'Carlos'
p11324
aS'Benito'
p11325
aS'Mateo'
p11326
aS'Pablo'
p11327
aS'Leandro'
p11328
atp11329
Rp11330
sS'Archbold'
p11331
g1
((lp11332
g6
atp11333
Rp11334
sS'Newburgh'
p11335
g1
((lp11336
g6
atp11337
Rp11338
sS'Montpelier'
p11339
g1
((lp11340
g6
atp11341
Rp11342
sS'Elkhorn'
p11343
g1
((lp11344
g6
atp11345
Rp11346
sS'Tuscumbia'
p11347
g1
((lp11348
g6
atp11349
Rp11350
sS'Gary'
p11351
g1
((lp11352
g6
atp11353
Rp11354
sS'Blytheville'
p11355
g1
((lp11356
g6
atp11357
Rp11358
sS'Darien'
p11359
g1
((lp11360
g6
atp11361
Rp11362
sS'Fruitland'
p11363
g1
((lp11364
g6
atp11365
Rp11366
sS'Elkton'
p11367
g1
((lp11368
g6
atp11369
Rp11370
sS'Borger'
p11371
g1
((lp11372
g6
atp11373
Rp11374
sS'Chickasha'
p11375
g1
((lp11376
g6
atp11377
Rp11378
sS'Treasure'
p11379
g1
((lp11380
S'Island'
p11381
atp11382
Rp11383
sS'Willard'
p11384
g1
((lp11385
g6
atp11386
Rp11387
sS'Liberty'
p11388
g1
((lp11389
g6
aS'Lake'
p11390
atp11391
Rp11392
sS'Wolverine'
p11393
g1
((lp11394
S'Lake'
p11395
atp11396
Rp11397
sS'Monett'
p11398
g1
((lp11399
g6
atp11400
Rp11401
sS'Wasilla'
p11402
g1
((lp11403
g6
atp11404
Rp11405
sS'Carbondale'
p11406
g1
((lp11407
g6
atp11408
Rp11409
sS'Tallmadge'
p11410
g1
((lp11411
g6
atp11412
Rp11413
sS'Fernandina'
p11414
g1
((lp11415
S'Beach'
p11416
atp11417
Rp11418
sS'Hayward'
p11419
g1
((lp11420
g6
atp11421
Rp11422
sS'Evergreen'
p11423
g1
((lp11424
S'Park'
p11425
atp11426
Rp11427
sS'Scotia'
p11428
g1
((lp11429
g6
atp11430
Rp11431
sS'Junction'
p11432
g1
((lp11433
S'City'
p11434
atp11435
Rp11436
sS'Bellbrook'
p11437
g1
((lp11438
g6
atp11439
Rp11440
sS'Westland'
p11441
g1
((lp11442
g6
atp11443
Rp11444
sS'Claremont'
p11445
g1
((lp11446
g6
atp11447
Rp11448
sS'Sussex'
p11449
g1
((lp11450
g6
atp11451
Rp11452
sS'Duarte'
p11453
g1
((lp11454
g6
atp11455
Rp11456
sS'Idabel'
p11457
g1
((lp11458
g6
atp11459
Rp11460
sS'Lamesa'
p11461
g1
((lp11462
g6
atp11463
Rp11464
sS'Avondale'
p11465
g1
((lp11466
g6
atp11467
Rp11468
sS'Quitman'
p11469
g1
((lp11470
g6
atp11471
Rp11472
sS'Vero'
p11473
g1
((lp11474
S'Beach'
p11475
atp11476
Rp11477
sS'Alpine'
p11478
g1
((lp11479
g6
atp11480
Rp11481
sS'Ogallala'
p11482
g1
((lp11483
g6
atp11484
Rp11485
sS'Grove'
p11486
g1
((lp11487
g6
aS'City'
p11488
atp11489
Rp11490
sS'Brooklyn'
p11491
g1
((lp11492
g6
aS'Park'
p11493
aS'Center'
p11494
atp11495
Rp11496
sS'Neptune'
p11497
g1
((lp11498
S'City'
p11499
aS'Beach'
p11500
atp11501
Rp11502
sS'Hastings-on-Hudson'
p11503
g1
((lp11504
g6
atp11505
Rp11506
sS'Kearney'
p11507
g1
((lp11508
g6
atp11509
Rp11510
sS'Alva'
p11511
g1
((lp11512
g6
atp11513
Rp11514
sS'LaGrange'
p11515
g1
((lp11516
g6
atp11517
Rp11518
sS'Siler'
p11519
g1
((lp11520
S'City'
p11521
atp11522
Rp11523
sS'Buffalo'
p11524
g1
((lp11525
g6
aS'Grove'
p11526
atp11527
Rp11528
sS'Bossier'
p11529
g1
((lp11530
S'City'
p11531
atp11532
Rp11533
sS'Angola'
p11534
g1
((lp11535
g6
atp11536
Rp11537
sS'Point'
p11538
g1
((lp11539
S'Pleasant'
p11540
atp11541
Rp11542
sS'Toppenish'
p11543
g1
((lp11544
g6
atp11545
Rp11546
sS'Ladue'
p11547
g1
((lp11548
g6
atp11549
Rp11550
sS'Maumelle'
p11551
g1
((lp11552
g6
atp11553
Rp11554
sS'Lawrence'
p11555
g1
((lp11556
g6
atp11557
Rp11558
sS'Waukee'
p11559
g1
((lp11560
g6
atp11561
Rp11562
sS'Butner'
p11563
g1
((lp11564
g6
atp11565
Rp11566
sS'Pleasantville'
p11567
g1
((lp11568
g6
atp11569
Rp11570
sS'Middleton'
p11571
g1
((lp11572
g6
atp11573
Rp11574
sS'Wadsworth'
p11575
g1
((lp11576
g6
atp11577
Rp11578
sS'Belfast'
p11579
g1
((lp11580
g6
atp11581
Rp11582
sS'Baraboo'
p11583
g1
((lp11584
g6
atp11585
Rp11586
sS'Yoakum'
p11587
g1
((lp11588
g6
atp11589
Rp11590
sS'Oradell'
p11591
g1
((lp11592
g6
atp11593
Rp11594
sS'Menomonie'
p11595
g1
((lp11596
g6
atp11597
Rp11598
sS'Winfield'
p11599
g1
((lp11600
g6
atp11601
Rp11602
sS'Dickinson'
p11603
g1
((lp11604
g6
atp11605
Rp11606
sS'Miramar'
p11607
g1
((lp11608
g6
atp11609
Rp11610
sS'Ellisville'
p11611
g1
((lp11612
g6
atp11613
Rp11614
sS'Telford'
p11615
g1
((lp11616
g6
atp11617
Rp11618
sS'North'
p11619
g1
((lp11620
S'Royalton'
p11621
aS'Manchester'
p11622
aS'Little'
p11623
aS'Richland'
p11624
aS'Chicago'
p11625
aS'Caldwell'
p11626
aS'Arlington'
p11627
aS'St.'
p11628
aS'Olmsted'
p11629
aS'Liberty'
p11630
aS'Canton'
p11631
aS'Plainfield'
p11632
aS'Branch'
p11633
aS'Riverside'
p11634
aS'Syracuse'
p11635
aS'Hills'
p11636
aS'Wildwood'
p11637
aS'Mankato'
p11638
aS'Aurora'
p11639
aS'Kansas'
p11640
aS'Vernon'
p11641
aS'Haledon'
p11642
aS'Tonawanda'
p11643
aS'Lauderdale'
p11644
aS'College'
p11645
aS'Platte'
p11646
aS'Las'
p11647
aS'Braddock'
p11648
aS'Adams'
p11649
aS'Miami'
p11650
aS'Ogden'
p11651
aS'Augusta'
p11652
aS'Charleston'
p11653
aS'Bay'
p11654
aS'Salt'
p11655
aS'Oaks'
p11656
aS'Fond'
p11657
aS'Port'
p11658
aS'Logan'
p11659
aS'Palm'
p11660
aS'Bend'
p11661
aS'Myrtle'
p11662
aS'Ridgeville'
p11663
atp11664
Rp11665
sS'Placentia'
p11666
g1
((lp11667
g6
atp11668
Rp11669
sS'Colville'
p11670
g1
((lp11671
g6
atp11672
Rp11673
sS'Blanchester'
p11674
g1
((lp11675
g6
atp11676
Rp11677
sS'Shenandoah'
p11678
g1
((lp11679
g6
atp11680
Rp11681
sS'Clarinda'
p11682
g1
((lp11683
g6
atp11684
Rp11685
sS'Placerville'
p11686
g1
((lp11687
g6
atp11688
Rp11689
sS'McFarland'
p11690
g1
((lp11691
g6
atp11692
Rp11693
sS'Trophy'
p11694
g1
((lp11695
S'Club'
p11696
atp11697
Rp11698
sS'Lincoln'
p11699
g1
((lp11700
g6
aS'City'
p11701
aS'Park'
p11702
atp11703
Rp11704
sS'Sebastopol'
p11705
g1
((lp11706
g6
atp11707
Rp11708
sS'Algonac'
p11709
g1
((lp11710
g6
atp11711
Rp11712
sS"Lee's"
p11713
g1
((lp11714
S'Summit'
p11715
atp11716
Rp11717
sS'Laconia'
p11718
g1
((lp11719
g6
atp11720
Rp11721
sS'Roosevelt'
p11722
g1
((lp11723
g6
atp11724
Rp11725
sS'Moab'
p11726
g1
((lp11727
g6
atp11728
Rp11729
sS'Billings'
p11730
g1
((lp11731
g6
atp11732
Rp11733
sS'Xenia'
p11734
g1
((lp11735
g6
atp11736
Rp11737
sS'Soldotna'
p11738
g1
((lp11739
g6
atp11740
Rp11741
sS'Waycross'
p11742
g1
((lp11743
g6
atp11744
Rp11745
sS'Carteret'
p11746
g1
((lp11747
g6
atp11748
Rp11749
sS'Lawton'
p11750
g1
((lp11751
g6
atp11752
Rp11753
sS'Haysville'
p11754
g1
((lp11755
g6
atp11756
Rp11757
sS'Hastings'
p11758
g1
((lp11759
g6
atp11760
Rp11761
sS'Mentor-on-the-Lake'
p11762
g1
((lp11763
g6
atp11764
Rp11765
sS'Whitewater'
p11766
g1
((lp11767
g6
atp11768
Rp11769
sS'Jamesburg'
p11770
g1
((lp11771
g6
atp11772
Rp11773
sS'Milton'
p11774
g1
((lp11775
g6
atp11776
Rp11777
sS'Rosemount'
p11778
g1
((lp11779
g6
atp11780
Rp11781
sS'Universal'
p11782
g1
((lp11783
S'City'
p11784
atp11785
Rp11786
sS'Kokomo'
p11787
g1
((lp11788
g6
atp11789
Rp11790
sS'Galax'
p11791
g1
((lp11792
g6
atp11793
Rp11794
sS'Auburn'
p11795
g1
((lp11796
g6
aS'Hills'
p11797
atp11798
Rp11799
sS'Farmville'
p11800
g1
((lp11801
g6
atp11802
Rp11803
sS'Douglasville'
p11804
g1
((lp11805
g6
atp11806
Rp11807
sS'Haddon'
p11808
g1
((lp11809
S'Heights'
p11810
atp11811
Rp11812
sS'Fletcher'
p11813
g1
((lp11814
g6
atp11815
Rp11816
sS'Casper'
p11817
g1
((lp11818
g6
atp11819
Rp11820
sS'Burton'
p11821
g1
((lp11822
g6
atp11823
Rp11824
sS'Lima'
p11825
g1
((lp11826
g6
atp11827
Rp11828
sS'Berthoud'
p11829
g1
((lp11830
g6
atp11831
Rp11832
sS'Valdese'
p11833
g1
((lp11834
g6
atp11835
Rp11836
sS'Lawndale'
p11837
g1
((lp11838
g6
atp11839
Rp11840
sS'Gillette'
p11841
g1
((lp11842
g6
atp11843
Rp11844
sS'Abilene'
p11845
g1
((lp11846
g6
atp11847
Rp11848
sS'Angier'
p11849
g1
((lp11850
g6
atp11851
Rp11852
sS'Westminster'
p11853
g1
((lp11854
g6
atp11855
Rp11856
sS'Tinley'
p11857
g1
((lp11858
S'Park'
p11859
atp11860
Rp11861
sS'Ephraim'
p11862
g1
((lp11863
g6
atp11864
Rp11865
sS'Berryville'
p11866
g1
((lp11867
g6
atp11868
Rp11869
sS'Oil'
p11870
g1
((lp11871
S'City'
p11872
atp11873
Rp11874
sS'Patterson'
p11875
g1
((lp11876
g6
atp11877
Rp11878
sS'Alton'
p11879
g1
((lp11880
g6
atp11881
Rp11882
sS'Thousand'
p11883
g1
((lp11884
S'Oaks'
p11885
atp11886
Rp11887
sS'Souderton'
p11888
g1
((lp11889
g6
atp11890
Rp11891
sS'Berkley'
p11892
g1
((lp11893
g6
atp11894
Rp11895
sS'Pea'
p11896
g1
((lp11897
S'Ridge'
p11898
atp11899
Rp11900
sS'Atchison'
p11901
g1
((lp11902
g6
atp11903
Rp11904
sS'Santa'
p11905
g1
((lp11906
S'Monica'
p11907
aS'Clarita'
p11908
aS'Ana'
p11909
aS'Clara'
p11910
aS'Rosa'
p11911
aS'Cruz'
p11912
aS'Fe'
p11913
aS'Barbara'
p11914
aS'Paula'
p11915
aS'Maria'
p11916
atp11917
Rp11918
sS'Rolling'
p11919
g1
((lp11920
S'Meadows'
p11921
aS'Hills'
p11922
atp11923
Rp11924
sS'Connersville'
p11925
g1
((lp11926
g6
atp11927
Rp11928
sS'Higginsville'
p11929
g1
((lp11930
g6
atp11931
Rp11932
sS'Decatur'
p11933
g1
((lp11934
g6
atp11935
Rp11936
sS'Pueblo'
p11937
g1
((lp11938
g6
atp11939
Rp11940
sS'Sheridan'
p11941
g1
((lp11942
g6
atp11943
Rp11944
sS'Des'
p11945
g1
((lp11946
S'Peres'
p11947
aS'Moines'
p11948
aS'Plaines'
p11949
atp11950
Rp11951
sS'Danielson'
p11952
g1
((lp11953
g6
atp11954
Rp11955
sS'Platte'
p11956
g1
((lp11957
S'City'
p11958
atp11959
Rp11960
sS'Bangor'
p11961
g1
((lp11962
g6
atp11963
Rp11964
sS'Wagoner'
p11965
g1
((lp11966
g6
atp11967
Rp11968
sS'Horizon'
p11969
g1
((lp11970
S'City'
p11971
atp11972
Rp11973
sS'Mercedes'
p11974
g1
((lp11975
g6
atp11976
Rp11977
sS'Groveport'
p11978
g1
((lp11979
g6
atp11980
Rp11981
sS'Sedalia'
p11982
g1
((lp11983
g6
atp11984
Rp11985
sS'Romeoville'
p11986
g1
((lp11987
g6
atp11988
Rp11989
sS'Ottumwa'
p11990
g1
((lp11991
g6
atp11992
Rp11993
sS'Lindsay'
p11994
g1
((lp11995
g6
atp11996
Rp11997
sS'Collingswood'
p11998
g1
((lp11999
g6
atp12000
Rp12001
sS'Matteson'
p12002
g1
((lp12003
g6
atp12004
Rp12005
sS'Morton'
p12006
g1
((lp12007
S'Grove'
p12008
ag6
atp12009
Rp12010
sS'Coeur'
p12011
g1
((lp12012
S"d'Alene"
p12013
atp12014
Rp12015
sS'Lock'
p12016
g1
((lp12017
S'Haven'
p12018
atp12019
Rp12020
sS'Romulus'
p12021
g1
((lp12022
g6
atp12023
Rp12024
sS'Claremore'
p12025
g1
((lp12026
g6
atp12027
Rp12028
sS'High'
p12029
g1
((lp12030
S'Springs'
p12031
aS'Point'
p12032
atp12033
Rp12034
sS'Hoopeston'
p12035
g1
((lp12036
g6
atp12037
Rp12038
sS'Wellsville'
p12039
g1
((lp12040
g6
atp12041
Rp12042
sS'Cottonwood'
p12043
g1
((lp12044
g6
aS'Heights'
p12045
atp12046
Rp12047
sS'Bend'
p12048
g1
((lp12049
g6
atp12050
Rp12051
sS'Maysville'
p12052
g1
((lp12053
g6
atp12054
Rp12055
sS'Harlan'
p12056
g1
((lp12057
g6
atp12058
Rp12059
sS'Hasbrouck'
p12060
g1
((lp12061
S'Heights'
p12062
atp12063
Rp12064
sS'Clearfield'
p12065
g1
((lp12066
g6
atp12067
Rp12068
sS'Harahan'
p12069
g1
((lp12070
g6
atp12071
Rp12072
sS'Tequesta'
p12073
g1
((lp12074
g6
atp12075
Rp12076
sS'Blair'
p12077
g1
((lp12078
g6
atp12079
Rp12080
sS'Shawnee'
p12081
g1
((lp12082
g6
atp12083
Rp12084
sS'Bernalillo'
p12085
g1
((lp12086
g6
atp12087
Rp12088
sS'Cordele'
p12089
g1
((lp12090
g6
atp12091
Rp12092
sS'Paris'
p12093
g1
((lp12094
g6
atp12095
Rp12096
sS'Lehi'
p12097
g1
((lp12098
g6
atp12099
Rp12100
sS'Pontotoc'
p12101
g1
((lp12102
g6
atp12103
Rp12104
sS'Klamath'
p12105
g1
((lp12106
S'Falls'
p12107
atp12108
Rp12109
sS'McGregor'
p12110
g1
((lp12111
g6
atp12112
Rp12113
sS'Morristown'
p12114
g1
((lp12115
g6
atp12116
Rp12117
sS'Marshalltown'
p12118
g1
((lp12119
g6
atp12120
Rp12121
sS'Denison'
p12122
g1
((lp12123
g6
atp12124
Rp12125
sS'Independence'
p12126
g1
((lp12127
g6
atp12128
Rp12129
sS'Tavares'
p12130
g1
((lp12131
g6
atp12132
Rp12133
sS'Hornell'
p12134
g1
((lp12135
g6
atp12136
Rp12137
sS'Beacon'
p12138
g1
((lp12139
g6
atp12140
Rp12141
sS'Herkimer'
p12142
g1
((lp12143
g6
atp12144
Rp12145
sS'York'
p12146
g1
((lp12147
g6
atp12148
Rp12149
sS'Dickson'
p12150
g1
((lp12151
g6
aS'City'
p12152
atp12153
Rp12154
sS'Cottage'
p12155
g1
((lp12156
S'Grove'
p12157
atp12158
Rp12159
sS'Dodgeville'
p12160
g1
((lp12161
g6
atp12162
Rp12163
sS'Atoka'
p12164
g1
((lp12165
g6
atp12166
Rp12167
sS'Caruthersville'
p12168
g1
((lp12169
g6
atp12170
Rp12171
sS'Homer'
p12172
g1
((lp12173
S'Glen'
p12174
ag6
atp12175
Rp12176
sS'Norridge'
p12177
g1
((lp12178
g6
atp12179
Rp12180
sS'Saginaw'
p12181
g1
((lp12182
g6
atp12183
Rp12184
sS'Southampton'
p12185
g1
((lp12186
g6
atp12187
Rp12188
sS'Westville'
p12189
g1
((lp12190
g6
atp12191
Rp12192
sS'Tukwila'
p12193
g1
((lp12194
g6
atp12195
Rp12196
sS'Coal'
p12197
g1
((lp12198
S'City'
p12199
atp12200
Rp12201
sS'Newport'
p12202
g1
((lp12203
g6
aS'News'
p12204
aS'Beach'
p12205
atp12206
Rp12207
sS'Warrensburg'
p12208
g1
((lp12209
g6
atp12210
Rp12211
sS'Tarrant'
p12212
g1
((lp12213
g6
atp12214
Rp12215
sS'Gladstone'
p12216
g1
((lp12217
g6
atp12218
Rp12219
sS'River'
p12220
g1
((lp12221
S'Grove'
p12222
aS'Falls'
p12223
aS'Edge'
p12224
aS'Forest'
p12225
aS'Rouge'
p12226
aS'Oaks'
p12227
atp12228
Rp12229
sS'Noblesville'
p12230
g1
((lp12231
g6
atp12232
Rp12233
sS'Penns'
p12234
g1
((lp12235
S'Grove'
p12236
atp12237
Rp12238
sS'Endicott'
p12239
g1
((lp12240
g6
atp12241
Rp12242
sS'Humboldt'
p12243
g1
((lp12244
g6
atp12245
Rp12246
sS'Sullivan'
p12247
g1
((lp12248
g6
aS'City'
p12249
atp12250
Rp12251
sS'Bernardsville'
p12252
g1
((lp12253
g6
atp12254
Rp12255
sS'Gaffney'
p12256
g1
((lp12257
g6
atp12258
Rp12259
sS'Fredericksburg'
p12260
g1
((lp12261
g6
atp12262
Rp12263
sS'Devine'
p12264
g1
((lp12265
g6
atp12266
Rp12267
sS'Visalia'
p12268
g1
((lp12269
g6
atp12270
Rp12271
sS'Livonia'
p12272
g1
((lp12273
g6
atp12274
Rp12275
sS'Camden'
p12276
g1
((lp12277
g6
atp12278
Rp12279
sS'Palisades'
p12280
g1
((lp12281
S'Park'
p12282
atp12283
Rp12284
sS'Darlington'
p12285
g1
((lp12286
g6
atp12287
Rp12288
sS'Vermillion'
p12289
g1
((lp12290
g6
atp12291
Rp12292
sS'Anniston'
p12293
g1
((lp12294
g6
atp12295
Rp12296
sS'Greeley'
p12297
g1
((lp12298
g6
atp12299
Rp12300
sS'Creve'
p12301
g1
((lp12302
S'Coeur'
p12303
atp12304
Rp12305
sS'Wiggins'
p12306
g1
((lp12307
g6
atp12308
Rp12309
sS'Gulfport'
p12310
g1
((lp12311
g6
atp12312
Rp12313
sS'King'
p12314
g1
((lp12315
S'City'
p12316
atp12317
Rp12318
sS'Ilion'
p12319
g1
((lp12320
g6
atp12321
Rp12322
sS'Nicholasville'
p12323
g1
((lp12324
g6
atp12325
Rp12326
sS'Havre'
p12327
g1
((lp12328
g6
aS'de'
p12329
atp12330
Rp12331
sS'Benbrook'
p12332
g1
((lp12333
g6
atp12334
Rp12335
sS'Bremerton'
p12336
g1
((lp12337
g6
atp12338
Rp12339
sS'Larkspur'
p12340
g1
((lp12341
g6
atp12342
Rp12343
sS'Banning'
p12344
g1
((lp12345
g6
atp12346
Rp12347
sS'Desloge'
p12348
g1
((lp12349
g6
atp12350
Rp12351
sS'Evansville'
p12352
g1
((lp12353
g6
atp12354
Rp12355
sS'Paulsboro'
p12356
g1
((lp12357
g6
atp12358
Rp12359
sS'Hermosa'
p12360
g1
((lp12361
S'Beach'
p12362
atp12363
Rp12364
sS'Linden'
p12365
g1
((lp12366
g6
atp12367
Rp12368
sS'Poway'
p12369
g1
((lp12370
g6
atp12371
Rp12372
sS'Glenarden'
p12373
g1
((lp12374
g6
atp12375
Rp12376
sS'Taylorsville'
p12377
g1
((lp12378
g6
atp12379
Rp12380
sS'Millbrook'
p12381
g1
((lp12382
g6
atp12383
Rp12384
sS'Greenbrier'
p12385
g1
((lp12386
g6
atp12387
Rp12388
sS'Aurora'
p12389
g1
((lp12390
g6
atp12391
Rp12392
sS'DeWitt'
p12393
g1
((lp12394
g6
atp12395
Rp12396
sS'Monongahela'
p12397
g1
((lp12398
g6
atp12399
Rp12400
sS'Macomb'
p12401
g1
((lp12402
g6
atp12403
Rp12404
sS'Buckley'
p12405
g1
((lp12406
g6
atp12407
Rp12408
sS'Harvard'
p12409
g1
((lp12410
g6
atp12411
Rp12412
sS'Absecon'
p12413
g1
((lp12414
g6
atp12415
Rp12416
sS'Gallup'
p12417
g1
((lp12418
g6
atp12419
Rp12420
sS'Greenbelt'
p12421
g1
((lp12422
g6
atp12423
Rp12424
sS'Estherville'
p12425
g1
((lp12426
g6
atp12427
Rp12428
sS'Beaufort'
p12429
g1
((lp12430
g6
atp12431
Rp12432
sS'Rockford'
p12433
g1
((lp12434
g6
atp12435
Rp12436
sS'Kenner'
p12437
g1
((lp12438
g6
atp12439
Rp12440
sS'Lonoke'
p12441
g1
((lp12442
g6
atp12443
Rp12444
sS'Carlinville'
p12445
g1
((lp12446
g6
atp12447
Rp12448
sS'Blacksburg'
p12449
g1
((lp12450
g6
atp12451
Rp12452
sS'Gibsonville'
p12453
g1
((lp12454
g6
atp12455
Rp12456
sS'Starkville'
p12457
g1
((lp12458
g6
atp12459
Rp12460
sS'Moreno'
p12461
g1
((lp12462
S'Valley'
p12463
atp12464
Rp12465
sS'Massapequa'
p12466
g1
((lp12467
S'Park'
p12468
atp12469
Rp12470
sS'Croton-on-Hudson'
p12471
g1
((lp12472
g6
atp12473
Rp12474
sS'Tuscola'
p12475
g1
((lp12476
g6
atp12477
Rp12478
sS'Sequim'
p12479
g1
((lp12480
g6
atp12481
Rp12482
sS'Thibodaux'
p12483
g1
((lp12484
g6
atp12485
Rp12486
sS'Vadnais'
p12487
g1
((lp12488
S'Heights'
p12489
atp12490
Rp12491
sS'Portsmouth'
p12492
g1
((lp12493
g6
atp12494
Rp12495
sS'Dinuba'
p12496
g1
((lp12497
g6
atp12498
Rp12499
sS'Midfield'
p12500
g1
((lp12501
g6
atp12502
Rp12503
sS'Rolla'
p12504
g1
((lp12505
g6
atp12506
Rp12507
sS'Holyoke'
p12508
g1
((lp12509
g6
atp12510
Rp12511
sS'Woods'
p12512
g1
((lp12513
S'Cross'
p12514
atp12515
Rp12516
sS'Modesto'
p12517
g1
((lp12518
g6
atp12519
Rp12520
sS'Centennial'
p12521
g1
((lp12522
g6
atp12523
Rp12524
sS'Ione'
p12525
g1
((lp12526
g6
atp12527
Rp12528
sS'Beaver'
p12529
g1
((lp12530
g6
aS'Dam'
p12531
aS'Falls'
p12532
atp12533
Rp12534
sS'Tacoma'
p12535
g1
((lp12536
g6
atp12537
Rp12538
sS'Cypress'
p12539
g1
((lp12540
g6
atp12541
Rp12542
sS'Kinnelon'
p12543
g1
((lp12544
g6
atp12545
Rp12546
sS'Harriman'
p12547
g1
((lp12548
g6
atp12549
Rp12550
sS'Rockdale'
p12551
g1
((lp12552
g6
atp12553
Rp12554
sS'Los'
p12555
g1
((lp12556
S'Alamitos'
p12557
aS'Banos'
p12558
aS'Angeles'
p12559
aS'Gatos'
p12560
aS'Lunas'
p12561
aS'Fresnos'
p12562
aS'Altos'
p12563
aS'Ranchos'
p12564
atp12565
Rp12566
sS'Somerton'
p12567
g1
((lp12568
g6
atp12569
Rp12570
sS'Tuskegee'
p12571
g1
((lp12572
g6
atp12573
Rp12574
sS'Temple'
p12575
g1
((lp12576
g6
aS'City'
p12577
aS'Terrace'
p12578
atp12579
Rp12580
sS'Tiffin'
p12581
g1
((lp12582
g6
atp12583
Rp12584
sS'Monmouth'
p12585
g1
((lp12586
g6
atp12587
Rp12588
sS'Inverness'
p12589
g1
((lp12590
g6
atp12591
Rp12592
sS'Lindale'
p12593
g1
((lp12594
g6
atp12595
Rp12596
sS'Leitchfield'
p12597
g1
((lp12598
g6
atp12599
Rp12600
sS'Schererville'
p12601
g1
((lp12602
g6
atp12603
Rp12604
sS'Baxley'
p12605
g1
((lp12606
g6
atp12607
Rp12608
sS'Mansfield'
p12609
g1
((lp12610
g6
atp12611
Rp12612
sS'Fulton'
p12613
g1
((lp12614
g6
atp12615
Rp12616
sS'Perris'
p12617
g1
((lp12618
g6
atp12619
Rp12620
sS'Zephyrhills'
p12621
g1
((lp12622
g6
atp12623
Rp12624
sS'Carrizo'
p12625
g1
((lp12626
S'Springs'
p12627
atp12628
Rp12629
sS'Germantown'
p12630
g1
((lp12631
g6
atp12632
Rp12633
sS'Benson'
p12634
g1
((lp12635
g6
atp12636
Rp12637
sS'Toronto'
p12638
g1
((lp12639
g6
atp12640
Rp12641
sS'Flora'
p12642
g1
((lp12643
g6
atp12644
Rp12645
sS'Center'
p12646
g1
((lp12647
S'Line'
p12648
aS'Point'
p12649
atp12650
Rp12651
sS'Bluefield'
p12652
g1
((lp12653
g6
atp12654
Rp12655
sS'Defiance'
p12656
g1
((lp12657
g6
atp12658
Rp12659
sS'Wellington'
p12660
g1
((lp12661
g6
atp12662
Rp12663
sS'Magee'
p12664
g1
((lp12665
g6
atp12666
Rp12667
sS'Paragould'
p12668
g1
((lp12669
g6
atp12670
Rp12671
sS'Livingston'
p12672
g1
((lp12673
g6
atp12674
Rp12675
sS'Richardson'
p12676
g1
((lp12677
g6
atp12678
Rp12679
sS'Joplin'
p12680
g1
((lp12681
g6
atp12682
Rp12683
sS'Ennis'
p12684
g1
((lp12685
g6
atp12686
Rp12687
sS'Winterville'
p12688
g1
((lp12689
g6
atp12690
Rp12691
sS'Ann'
p12692
g1
((lp12693
S'Arbor'
p12694
atp12695
Rp12696
sS'Thomaston'
p12697
g1
((lp12698
g6
atp12699
Rp12700
sS'Guntersville'
p12701
g1
((lp12702
g6
atp12703
Rp12704
sS'Martinez'
p12705
g1
((lp12706
g6
atp12707
Rp12708
sS'Bladensburg'
p12709
g1
((lp12710
g6
atp12711
Rp12712
sS'Farragut'
p12713
g1
((lp12714
g6
atp12715
Rp12716
sS'Bethlehem'
p12717
g1
((lp12718
g6
atp12719
Rp12720
sS'Cliffside'
p12721
g1
((lp12722
S'Park'
p12723
atp12724
Rp12725
sS'Battle'
p12726
g1
((lp12727
S'Creek'
p12728
aS'Ground'
p12729
atp12730
Rp12731
sS'Coraopolis'
p12732
g1
((lp12733
g6
atp12734
Rp12735
sS'Somerville'
p12736
g1
((lp12737
g6
atp12738
Rp12739
sS'Doraville'
p12740
g1
((lp12741
g6
atp12742
Rp12743
sS'Yazoo'
p12744
g1
((lp12745
S'City'
p12746
atp12747
Rp12748
sS'McKenzie'
p12749
g1
((lp12750
g6
atp12751
Rp12752
sS'Inglewood'
p12753
g1
((lp12754
g6
atp12755
Rp12756
sS'Imperial'
p12757
g1
((lp12758
g6
aS'Beach'
p12759
atp12760
Rp12761
sS'Plantation'
p12762
g1
((lp12763
g6
atp12764
Rp12765
sS'Circle'
p12766
g1
((lp12767
S'Pines'
p12768
atp12769
Rp12770
sS'Estes'
p12771
g1
((lp12772
S'Park'
p12773
atp12774
Rp12775
sS'Beach'
p12776
g1
((lp12777
S'Park'
p12778
atp12779
Rp12780
sS'Cumming'
p12781
g1
((lp12782
g6
atp12783
Rp12784
sS'Hope'
p12785
g1
((lp12786
g6
aS'Mills'
p12787
atp12788
Rp12789
sS'Lowell'
p12790
g1
((lp12791
g6
atp12792
Rp12793
sS'Dunkirk'
p12794
g1
((lp12795
g6
atp12796
Rp12797
sS'Rogers'
p12798
g1
((lp12799
g6
atp12800
Rp12801
sS'Staunton'
p12802
g1
((lp12803
g6
atp12804
Rp12805
sS'Huntsville'
p12806
g1
((lp12807
g6
atp12808
Rp12809
sS'Culver'
p12810
g1
((lp12811
S'City'
p12812
atp12813
Rp12814
sS'Excelsior'
p12815
g1
((lp12816
S'Springs'
p12817
atp12818
Rp12819
sS'Boynton'
p12820
g1
((lp12821
S'Beach'
p12822
atp12823
Rp12824
sS'LaFayette'
p12825
g1
((lp12826
g6
atp12827
Rp12828
sS'Palmetto'
p12829
g1
((lp12830
g6
aS'Bay'
p12831
atp12832
Rp12833
sS'Krum'
p12834
g1
((lp12835
g6
atp12836
Rp12837
sS"Morgan's"
p12838
g1
((lp12839
S'Point'
p12840
atp12841
Rp12842
sS'Brush'
p12843
g1
((lp12844
g6
atp12845
Rp12846
sS'Coalinga'
p12847
g1
((lp12848
g6
atp12849
Rp12850
sS'Walled'
p12851
g1
((lp12852
S'Lake'
p12853
atp12854
Rp12855
sS'Natchitoches'
p12856
g1
((lp12857
g6
atp12858
Rp12859
sS'Tipton'
p12860
g1
((lp12861
g6
atp12862
Rp12863
sS'Alma'
p12864
g1
((lp12865
g6
atp12866
Rp12867
sS'Coral'
p12868
g1
((lp12869
S'Gables'
p12870
aS'Springs'
p12871
atp12872
Rp12873
sS'Irvington'
p12874
g1
((lp12875
g6
atp12876
Rp12877
sS'Clute'
p12878
g1
((lp12879
g6
atp12880
Rp12881
sS'Minooka'
p12882
g1
((lp12883
g6
atp12884
Rp12885
sS'Malone'
p12886
g1
((lp12887
g6
atp12888
Rp12889
sS'Groves'
p12890
g1
((lp12891
g6
atp12892
Rp12893
sS'Grover'
p12894
g1
((lp12895
S'Beach'
p12896
atp12897
Rp12898
sS'Aztec'
p12899
g1
((lp12900
g6
atp12901
Rp12902
sS'Menlo'
p12903
g1
((lp12904
S'Park'
p12905
atp12906
Rp12907
sS'Lander'
p12908
g1
((lp12909
g6
atp12910
Rp12911
sS'Augusta'
p12912
g1
((lp12913
g6
atp12914
Rp12915
sS'Mitchell'
p12916
g1
((lp12917
g6
atp12918
Rp12919
sS'Carmel'
p12920
g1
((lp12921
g6
atp12922
Rp12923
sS'Grimes'
p12924
g1
((lp12925
g6
atp12926
Rp12927
sS'Houston'
p12928
g1
((lp12929
g6
atp12930
Rp12931
sS'Tempe'
p12932
g1
((lp12933
g6
atp12934
Rp12935
sS'Spring'
p12936
g1
((lp12937
S'Grove'
p12938
aS'Valley'
p12939
aS'Hill'
p12940
aS'Lake'
p12941
atp12942
Rp12943
sS'Windcrest'
p12944
g1
((lp12945
g6
atp12946
Rp12947
sS'Woodbury'
p12948
g1
((lp12949
g6
atp12950
Rp12951
sS'Pierre'
p12952
g1
((lp12953
g6
atp12954
Rp12955
sS'Clemson'
p12956
g1
((lp12957
g6
atp12958
Rp12959
sS'Flower'
p12960
g1
((lp12961
S'Mound'
p12962
aS'Hill'
p12963
atp12964
Rp12965
sS'Normandy'
p12966
g1
((lp12967
g6
aS'Park'
p12968
atp12969
Rp12970
sS'Tecumseh'
p12971
g1
((lp12972
g6
atp12973
Rp12974
sS'Bonham'
p12975
g1
((lp12976
g6
atp12977
Rp12978
sS'Conyers'
p12979
g1
((lp12980
g6
atp12981
Rp12982
sS'Anamosa'
p12983
g1
((lp12984
g6
atp12985
Rp12986
sS'Cave'
p12987
g1
((lp12988
S'Creek'
p12989
atp12990
Rp12991
sS'Hayden'
p12992
g1
((lp12993
g6
atp12994
Rp12995
sS'Brookhaven'
p12996
g1
((lp12997
g6
atp12998
Rp12999
sS'Bloomington'
p13000
g1
((lp13001
g6
atp13002
Rp13003
sS'Porter'
p13004
g1
((lp13005
g6
atp13006
Rp13007
sS'Washingtonville'
p13008
g1
((lp13009
g6
atp13010
Rp13011
sS'Clear'
p13012
g1
((lp13013
S'Lake'
p13014
atp13015
Rp13016
sS'Milford'
p13017
g1
((lp13018
g6
atp13019
Rp13020
sS'Bellevue'
p13021
g1
((lp13022
g6
atp13023
Rp13024
sS'Corcoran'
p13025
g1
((lp13026
g6
atp13027
Rp13028
sS'Auburndale'
p13029
g1
((lp13030
g6
atp13031
Rp13032
sS'Shakopee'
p13033
g1
((lp13034
g6
atp13035
Rp13036
sS'Beardstown'
p13037
g1
((lp13038
g6
atp13039
Rp13040
sS'Gridley'
p13041
g1
((lp13042
g6
atp13043
Rp13044
sS'Collingdale'
p13045
g1
((lp13046
g6
atp13047
Rp13048
sS'Victoria'
p13049
g1
((lp13050
g6
atp13051
Rp13052
sS'Broken'
p13053
g1
((lp13054
S'Arrow'
p13055
atp13056
Rp13057
sS'Bridgeville'
p13058
g1
((lp13059
g6
atp13060
Rp13061
sS'Socorro'
p13062
g1
((lp13063
g6
atp13064
Rp13065
sS'Dearborn'
p13066
g1
((lp13067
g6
aS'Heights'
p13068
atp13069
Rp13070
sS'Lilburn'
p13071
g1
((lp13072
g6
atp13073
Rp13074
sS'Greenwood'
p13075
g1
((lp13076
g6
aS'Village'
p13077
atp13078
Rp13079
sS'Youngtown'
p13080
g1
((lp13081
g6
atp13082
Rp13083
sS'Enumclaw'
p13084
g1
((lp13085
g6
atp13086
Rp13087
sS'Mountlake'
p13088
g1
((lp13089
S'Terrace'
p13090
atp13091
Rp13092
sS'Collierville'
p13093
g1
((lp13094
g6
atp13095
Rp13096
sS'Winston-Salem'
p13097
g1
((lp13098
g6
atp13099
Rp13100
sS'Burleson'
p13101
g1
((lp13102
g6
atp13103
Rp13104
sS'Olney'
p13105
g1
((lp13106
g6
atp13107
Rp13108
sS'Inkster'
p13109
g1
((lp13110
g6
atp13111
Rp13112
sS'Maumee'
p13113
g1
((lp13114
g6
atp13115
Rp13116
sS'Lawrenceburg'
p13117
g1
((lp13118
g6
atp13119
Rp13120
sS'Menasha'
p13121
g1
((lp13122
g6
atp13123
Rp13124
sS'Ellensburg'
p13125
g1
((lp13126
g6
atp13127
Rp13128
sS'Broussard'
p13129
g1
((lp13130
g6
atp13131
Rp13132
sS'Dahlonega'
p13133
g1
((lp13134
g6
atp13135
Rp13136
sS'Sleepy'
p13137
g1
((lp13138
S'Hollow'
p13139
atp13140
Rp13141
sS'Soledad'
p13142
g1
((lp13143
g6
atp13144
Rp13145
sS'DuPont'
p13146
g1
((lp13147
g6
atp13148
Rp13149
sS'Mena'
p13150
g1
((lp13151
g6
atp13152
Rp13153
sS'Durham'
p13154
g1
((lp13155
g6
atp13156
Rp13157
sS'Wilkes-Barre'
p13158
g1
((lp13159
g6
atp13160
Rp13161
sS'Jasper'
p13162
g1
((lp13163
g6
atp13164
Rp13165
sS'Shrewsbury'
p13166
g1
((lp13167
g6
atp13168
Rp13169
sS'Westwood'
p13170
g1
((lp13171
g6
atp13172
Rp13173
sS'Las'
p13174
g1
((lp13175
S'Vegas'
p13176
aS'Cruces'
p13177
atp13178
Rp13179
sS'Hanahan'
p13180
g1
((lp13181
g6
atp13182
Rp13183
sS'McKeesport'
p13184
g1
((lp13185
g6
atp13186
Rp13187
sS'Nephi'
p13188
g1
((lp13189
g6
atp13190
Rp13191
sS'Orono'
p13192
g1
((lp13193
g6
atp13194
Rp13195
sS'Two'
p13196
g1
((lp13197
S'Rivers'
p13198
atp13199
Rp13200
sS'Portola'
p13201
g1
((lp13202
S'Valley'
p13203
atp13204
Rp13205
sS'Raytown'
p13206
g1
((lp13207
g6
atp13208
Rp13209
sS'Hermiston'
p13210
g1
((lp13211
g6
atp13212
Rp13213
sS'Sun'
p13214
g1
((lp13215
S'Prairie'
p13216
atp13217
Rp13218
sS'Gainesville'
p13219
g1
((lp13220
g6
atp13221
Rp13222
sS'Viroqua'
p13223
g1
((lp13224
g6
atp13225
Rp13226
sS'Mason'
p13227
g1
((lp13228
g6
aS'City'
p13229
atp13230
Rp13231
sS'Palatine'
p13232
g1
((lp13233
g6
atp13234
Rp13235
sS'Harwood'
p13236
g1
((lp13237
S'Heights'
p13238
atp13239
Rp13240
sS'Naugatuck'
p13241
g1
((lp13242
g6
atp13243
Rp13244
sS'McAllen'
p13245
g1
((lp13246
g6
atp13247
Rp13248
sS'Meridian'
p13249
g1
((lp13250
g6
atp13251
Rp13252
sS'Clemmons'
p13253
g1
((lp13254
g6
atp13255
Rp13256
sS'Eugene'
p13257
g1
((lp13258
g6
atp13259
Rp13260
sS'Draper'
p13261
g1
((lp13262
g6
atp13263
Rp13264
sS'Wallington'
p13265
g1
((lp13266
g6
atp13267
Rp13268
sS'Brockton'
p13269
g1
((lp13270
g6
atp13271
Rp13272
sS'Jacksboro'
p13273
g1
((lp13274
g6
atp13275
Rp13276
sS'Bryant'
p13277
g1
((lp13278
g6
atp13279
Rp13280
sS'Solon'
p13281
g1
((lp13282
g6
atp13283
Rp13284
sS'Eden'
p13285
g1
((lp13286
g6
aS'Prairie'
p13287
atp13288
Rp13289
sS'Killeen'
p13290
g1
((lp13291
g6
atp13292
Rp13293
sS'Mooresville'
p13294
g1
((lp13295
g6
atp13296
Rp13297
sS'Morrisville'
p13298
g1
((lp13299
g6
atp13300
Rp13301
sS'Leavenworth'
p13302
g1
((lp13303
g6
atp13304
Rp13305
sS'Shaker'
p13306
g1
((lp13307
S'Heights'
p13308
atp13309
Rp13310
sS'Belpre'
p13311
g1
((lp13312
g6
atp13313
Rp13314
sS'Atascadero'
p13315
g1
((lp13316
g6
atp13317
Rp13318
sS'Chester'
p13319
g1
((lp13320
g6
atp13321
Rp13322
sS'Tarboro'
p13323
g1
((lp13324
g6
atp13325
Rp13326
sS'Longmont'
p13327
g1
((lp13328
g6
atp13329
Rp13330
sS'Margate'
p13331
g1
((lp13332
g6
aS'City'
p13333
atp13334
Rp13335
sS'Ormond'
p13336
g1
((lp13337
S'Beach'
p13338
atp13339
Rp13340
sS'Brownsville'
p13341
g1
((lp13342
g6
atp13343
Rp13344
sS'Galt'
p13345
g1
((lp13346
g6
atp13347
Rp13348
sS'Rushville'
p13349
g1
((lp13350
g6
atp13351
Rp13352
sS'Camas'
p13353
g1
((lp13354
g6
atp13355
Rp13356
sS'Peabody'
p13357
g1
((lp13358
g6
atp13359
Rp13360
sS'Brookville'
p13361
g1
((lp13362
g6
atp13363
Rp13364
sS'Oroville'
p13365
g1
((lp13366
g6
atp13367
Rp13368
sS'Kingman'
p13369
g1
((lp13370
g6
atp13371
Rp13372
sS'Saline'
p13373
g1
((lp13374
g6
atp13375
Rp13376
sS'Salina'
p13377
g1
((lp13378
g6
atp13379
Rp13380
sS'Roselle'
p13381
g1
((lp13382
g6
aS'Park'
p13383
atp13384
Rp13385
sS'Anadarko'
p13386
g1
((lp13387
g6
atp13388
Rp13389
sS'Zionsville'
p13390
g1
((lp13391
g6
atp13392
Rp13393
sS'Greenville'
p13394
g1
((lp13395
g6
atp13396
Rp13397
sS'Woodstock'
p13398
g1
((lp13399
g6
atp13400
Rp13401
sS'Marseilles'
p13402
g1
((lp13403
g6
atp13404
Rp13405
sS'Takoma'
p13406
g1
((lp13407
S'Park'
p13408
atp13409
Rp13410
sS'Tulare'
p13411
g1
((lp13412
g6
atp13413
Rp13414
sS'Wooster'
p13415
g1
((lp13416
g6
atp13417
Rp13418
sS'Raymondville'
p13419
g1
((lp13420
g6
atp13421
Rp13422
sS'Dayton'
p13423
g1
((lp13424
g6
atp13425
Rp13426
sS'Pecos'
p13427
g1
((lp13428
g6
atp13429
Rp13430
sS'Fircrest'
p13431
g1
((lp13432
g6
atp13433
Rp13434
sS'Page'
p13435
g1
((lp13436
g6
atp13437
Rp13438
sS'Ramsey'
p13439
g1
((lp13440
g6
atp13441
Rp13442
sS'South'
p13443
g1
((lp13444
S'Lyon'
p13445
aS'St.'
p13446
aS'Lake'
p13447
aS'Plainfield'
p13448
aS'Pasadena'
p13449
aS'Burlington'
p13450
aS'Hill'
p13451
aS'Gate'
p13452
aS'Weber'
p13453
aS'Sioux'
p13454
aS'Williamsport'
p13455
aS'Jordan'
p13456
aS'Haven'
p13457
aS'Barrington'
p13458
aS'Daytona'
p13459
aS'Houston'
p13460
aS'Miami'
p13461
aS'Ogden'
p13462
aS'Bay'
p13463
aS'Tucson'
p13464
aS'Amboy'
p13465
aS'Charleston'
p13466
aS'River'
p13467
aS'Salt'
p13468
aS'Euclid'
p13469
aS'Holland'
p13470
aS'El'
p13471
aS'Elgin'
p13472
aS'San'
p13473
aS'Boston'
p13474
aS'Bound'
p13475
aS'Bend'
p13476
aS'Beloit'
p13477
aS'Milwaukee'
p13478
aS'Portland'
p13479
atp13480
Rp13481
sS'Daphne'
p13482
g1
((lp13483
g6
atp13484
Rp13485
sS'California'
p13486
g1
((lp13487
g6
aS'City'
p13488
atp13489
Rp13490
sS'Kissimmee'
p13491
g1
((lp13492
g6
atp13493
Rp13494
sS'Dover'
p13495
g1
((lp13496
g6
atp13497
Rp13498
sS'Mahomet'
p13499
g1
((lp13500
g6
atp13501
Rp13502
sS'Ambler'
p13503
g1
((lp13504
g6
atp13505
Rp13506
sS'Bradford'
p13507
g1
((lp13508
g6
atp13509
Rp13510
sS'Davison'
p13511
g1
((lp13512
g6
atp13513
Rp13514
sS'Eldridge'
p13515
g1
((lp13516
g6
atp13517
Rp13518
sS'Talent'
p13519
g1
((lp13520
g6
atp13521
Rp13522
sS'Carl'
p13523
g1
((lp13524
S'Junction'
p13525
atp13526
Rp13527
sS'Steilacoom'
p13528
g1
((lp13529
g6
atp13530
Rp13531
sS'Mills'
p13532
g1
((lp13533
S'River'
p13534
atp13535
Rp13536
sS'Lindenwold'
p13537
g1
((lp13538
g6
atp13539
Rp13540
sS'Hutchinson'
p13541
g1
((lp13542
g6
atp13543
Rp13544
sS'Detroit'
p13545
g1
((lp13546
g6
aS'Lakes'
p13547
atp13548
Rp13549
sS'Bemidji'
p13550
g1
((lp13551
g6
atp13552
Rp13553
sS'Del'
p13554
g1
((lp13555
S'Rio'
p13556
aS'Mar'
p13557
aS'City'
p13558
atp13559
Rp13560
sS'Irondale'
p13561
g1
((lp13562
g6
atp13563
Rp13564
sS'Highland'
p13565
g1
((lp13566
g6
aS'Heights'
p13567
aS'Park'
p13568
aS'Village'
p13569
atp13570
Rp13571
sS'Chelsea'
p13572
g1
((lp13573
g6
atp13574
Rp13575
sS'Milliken'
p13576
g1
((lp13577
g6
atp13578
Rp13579
sS'Sonoma'
p13580
g1
((lp13581
g6
atp13582
Rp13583
sS'McRae'
p13584
g1
((lp13585
g6
atp13586
Rp13587
sS'Beloit'
p13588
g1
((lp13589
g6
atp13590
Rp13591
sS'Herriman'
p13592
g1
((lp13593
g6
atp13594
Rp13595
sS'Kingsburg'
p13596
g1
((lp13597
g6
atp13598
Rp13599
sS'Gettysburg'
p13600
g1
((lp13601
g6
atp13602
Rp13603
sS'Manteno'
p13604
g1
((lp13605
g6
atp13606
Rp13607
sS'Duryea'
p13608
g1
((lp13609
g6
atp13610
Rp13611
sS'Lakeville'
p13612
g1
((lp13613
g6
atp13614
Rp13615
sS'Stroudsburg'
p13616
g1
((lp13617
g6
atp13618
Rp13619
sS'Goodlettsville'
p13620
g1
((lp13621
g6
atp13622
Rp13623
sS'Uniontown'
p13624
g1
((lp13625
g6
atp13626
Rp13627
sS'Peru'
p13628
g1
((lp13629
g6
atp13630
Rp13631
sS'Portage'
p13632
g1
((lp13633
g6
atp13634
Rp13635
sS'Hephzibah'
p13636
g1
((lp13637
g6
atp13638
Rp13639
sS'Rye'
p13640
g1
((lp13641
g6
aS'Brook'
p13642
atp13643
Rp13644
sS'Lake'
p13645
g1
((lp13646
S'Havasu'
p13647
aS'City'
p13648
aS'Jackson'
p13649
aS'Dallas'
p13650
aS'St.'
p13651
aS'Elmo'
p13652
aS'Mills'
p13653
aS'Station'
p13654
aS'Forest'
p13655
aS'Alfred'
p13656
aS'in'
p13657
aS'Wales'
p13658
aS'Mary'
p13659
aS'Geneva'
p13660
aS'Stevens'
p13661
aS'Park'
p13662
aS'Worth'
p13663
aS'Elsinore'
p13664
aS'Bluff'
p13665
aS'Barrington'
p13666
aS'Grove'
p13667
aS'Hallie'
p13668
aS'Villa'
p13669
aS'Zurich'
p13670
aS'Oswego'
p13671
aS'Charles'
p13672
atp13673
Rp13674
sS'Rockingham'
p13675
g1
((lp13676
g6
atp13677
Rp13678
sS'Vancouver'
p13679
g1
((lp13680
g6
atp13681
Rp13682
sS'Espanola'
p13683
g1
((lp13684
g6
atp13685
Rp13686
sS'Cortland'
p13687
g1
((lp13688
g6
atp13689
Rp13690
sS'Grayslake'
p13691
g1
((lp13692
g6
atp13693
Rp13694
sS'Slatington'
p13695
g1
((lp13696
g6
atp13697
Rp13698
sS'Wauwatosa'
p13699
g1
((lp13700
g6
atp13701
Rp13702
sS'Collegedale'
p13703
g1
((lp13704
g6
atp13705
Rp13706
sS'Geneva'
p13707
g1
((lp13708
g6
atp13709
Rp13710
sS'Whitehall'
p13711
g1
((lp13712
g6
atp13713
Rp13714
sS'Converse'
p13715
g1
((lp13716
g6
atp13717
Rp13718
sS'Sartell'
p13719
g1
((lp13720
g6
atp13721
Rp13722
sS'Hutto'
p13723
g1
((lp13724
g6
atp13725
Rp13726
sS'Shillington'
p13727
g1
((lp13728
g6
atp13729
Rp13730
sS'Bartlesville'
p13731
g1
((lp13732
g6
atp13733
Rp13734
sS'Berwick'
p13735
g1
((lp13736
g6
atp13737
Rp13738
sS'Carolina'
p13739
g1
((lp13740
S'Beach'
p13741
atp13742
Rp13743
sS'Jacksonville'
p13744
g1
((lp13745
g6
aS'Beach'
p13746
atp13747
Rp13748
sS'Ferndale'
p13749
g1
((lp13750
g6
atp13751
Rp13752
sS'Barrington'
p13753
g1
((lp13754
g6
aS'Hills'
p13755
atp13756
Rp13757
sS'Polson'
p13758
g1
((lp13759
g6
atp13760
Rp13761
sS'Payson'
p13762
g1
((lp13763
g6
atp13764
Rp13765
sS'Rohnert'
p13766
g1
((lp13767
S'Park'
p13768
atp13769
Rp13770
sS'Morgan'
p13771
g1
((lp13772
S'City'
p13773
aS'Hill'
p13774
atp13775
Rp13776
sS'Novato'
p13777
g1
((lp13778
g6
atp13779
Rp13780
sS"O'Fallon"
p13781
g1
((lp13782
g6
atp13783
Rp13784
sS'Lewisburg'
p13785
g1
((lp13786
g6
atp13787
Rp13788
sS'Marble'
p13789
g1
((lp13790
S'Falls'
p13791
atp13792
Rp13793
sS'Baltimore'
p13794
g1
((lp13795
g6
atp13796
Rp13797
sS'SeaTac'
p13798
g1
((lp13799
g6
atp13800
Rp13801
sS'Prospect'
p13802
g1
((lp13803
g6
aS'Park'
p13804
aS'Heights'
p13805
atp13806
Rp13807
sS'Abingdon'
p13808
g1
((lp13809
g6
atp13810
Rp13811
sS'Girard'
p13812
g1
((lp13813
g6
atp13814
Rp13815
sS'Fultondale'
p13816
g1
((lp13817
g6
atp13818
Rp13819
sS'Roswell'
p13820
g1
((lp13821
g6
atp13822
Rp13823
sS'Vermilion'
p13824
g1
((lp13825
g6
atp13826
Rp13827
sS'Elwood'
p13828
g1
((lp13829
g6
atp13830
Rp13831
sS'Haverstraw'
p13832
g1
((lp13833
g6
atp13834
Rp13835
sS'Christiansburg'
p13836
g1
((lp13837
g6
atp13838
Rp13839
sS'Spanish'
p13840
g1
((lp13841
S'Fork'
p13842
aS'Fort'
p13843
atp13844
Rp13845
sS'Harker'
p13846
g1
((lp13847
S'Heights'
p13848
atp13849
Rp13850
sS'Steelton'
p13851
g1
((lp13852
g6
atp13853
Rp13854
sS'Montebello'
p13855
g1
((lp13856
g6
atp13857
Rp13858
s.