c__builtin__
set
p0
((lp1
S'monterey'
p2
aS'all'
p3
aS'peaches'
p4
aVprebiotic
p5
aS'urinary'
p6
aS'aids'
p7
aVmackerel
p8
aVale
p9
aS'powders'
p10
aS'mortadella'
p11
aS'burritos'
p12
aS'chip,'
p13
aVskim
p14
aS'asian'
p15
aVoatbran
p16
aS'parmesan'
p17
aS'dish'
p18
aS'brain/neurological/memory'
p19
aS'guava'
p20
aS'milk'
p21
aS'grape'
p22
aS'peanut'
p23
aS'sparkling'
p24
aS'dairy'
p25
aS'dressing'
p26
aS'couscous'
p27
aS'health'
p28
aS'flatbreads,'
p29
aS'brown'
p30
aS'acidophilus'
p31
aVglandulars
p32
aS'string'
p33
aVjerk
p34
aS'yeast'
p35
aS'deli'
p36
aS'dessert'
p37
aS'multi'
p38
aS'fat'
p39
aS"women's"
p40
aS'powder,'
p41
aS'jack'
p42
aVcellular
p43
aS'formula'
p44
aVcandida
p45
aVdecorating
p46
aVminerals
p47
aS'lozenges'
p48
aVtheanine
p49
aS'tortillas'
p50
aS'baking'
p51
aS'grains'
p52
aS'minestrone'
p53
aS'desserts'
p54
aS'(>='
p55
aS'gum'
p56
aS'joes'
p57
aS'cholesterol'
p58
aVpoppy
p59
aS'scampi'
p60
aS'dip'
p61
aS'alfredo'
p62
aS'pork'
p63
aS'specially'
p64
aS'seasoning'
p65
aS'tea'
p66
aS'almond'
p67
aS'bacon'
p68
aS'pepper'
p69
aS'oz)'
p70
aS'burger'
p71
aS'gummies'
p72
aS'dried'
p73
aVhtp
p74
aS'wheat'
p75
aS'broccoli,'
p76
aVcactus
p77
aS'spaghetti'
p78
aS'rye'
p79
aS'gnocchi'
p80
aS'drinks'
p81
aS'blue'
p82
aS'sausage'
p83
aS'cupcakes'
p84
aVwholegrain
p85
aS'tarragon'
p86
aS'sun'
p87
aS'squeeze'
p88
aS'cooking'
p89
aVcrust
p90
aVcaffeine
p91
aS'(k+)'
p92
aVindian
p93
aS'barbecue'
p94
aS'digestive'
p95
aVtips
p96
aS'crackerbread'
p97
aS'croutons'
p98
aS'filled'
p99
aVhash
p100
aS'cookies'
p101
aS'beet'
p102
aS'pancakes'
p103
aS'herb'
p104
aS'peeled'
p105
aS'jasmine'
p106
aS'french'
p107
aS'water'
p108
aS'pumpernickel'
p109
aS'coloring'
p110
aS'pate'
p111
aS'free'
p112
aS'pancake'
p113
aS'medicinal'
p114
aS'rimmers'
p115
aS'sandwiches,'
p116
aS'mozzarella'
p117
aS'dry'
p118
aS'vinegar'
p119
aS'great'
p120
aS'kids'
p121
aVpressure
p122
aS'healthy'
p123
aS'bites'
p124
aS'leaves'
p125
aVspiced
p126
aS'muenster'
p127
aS'lasagne'
p128
aS'supplements'
p129
aS'products'
p130
aS'cinnamon'
p131
aVbuckwheat
p132
aS'popcorn'
p133
aS'meatless'
p134
aS'entrees'
p135
aS'options'
p136
aS'apple'
p137
aS'canola'
p138
aS'slices'
p139
aS'rigatoni'
p140
aS'sliced'
p141
aS'chunky'
p142
aVdumpling
p143
aS'duck'
p144
aS'lima'
p145
aS'egg'
p146
aS'lime'
p147
aS'flavors'
p148
aS'celery'
p149
aS'sexual'
p150
aS'seafood,'
p151
aS'eye'
p152
aS'&'
p153
aS'whipping'
p154
aS'snacks'
p155
aVtubes
p156
aS'pears'
p157
aS'berries'
p158
aS'cashews'
p159
aS'crab'
p160
aS'6'
p161
aS'respiratory'
p162
aS'creams'
p163
aS'blueberry'
p164
aS'more'
p165
aVmenstrual
p166
aVcharcoal
p167
aS'corndogs'
p168
aS'females'
p169
aS'italian,'
p170
aS'flax'
p171
aS'chocolate'
p172
aS'trail'
p173
aS'pecan'
p174
aS'biotin'
p175
aS'baby'
p176
aS'cured'
p177
aS'crackers'
p178
aS'sleep'
p179
aVhalf,
p180
aVballs
p181
aS'cream,'
p182
aS'vitamin/mineral'
p183
aS'fortified'
p184
aVmalt
p185
aS'matzo'
p186
aS'soup'
p187
aS'sour'
p188
aS'can'
p189
aS'of'
p190
aS'rotini'
p191
aS'meatball'
p192
aS'pumpkin'
p193
aVroot
p194
aS'ribs'
p195
aS'heart'
p196
aVvodka
p197
aVpsyllium
p198
aS'promotional'
p199
aS'honey'
p200
aS'kefir'
p201
aV(riboflavin)
p202
aS'mixes'
p203
aS'onions'
p204
aS'syrups'
p205
aS'icing'
p206
aS'lysine'
p207
aS'aging'
p208
aS'pinto'
p209
aS'bread,'
p210
aS'recovery'
p211
aS'danishes'
p212
aS'nuts'
p213
aS'barley,'
p214
aS'pine'
p215
aS'immune'
p216
aS'hot'
p217
aS'cabbage,'
p218
aS'low'
p219
aS'feta'
p220
aVbrowns
p221
aS'stir'
p222
aVgoat
p223
aS'pizza'
p224
aS'loaves'
p225
aS'hamburger,'
p226
aS'onion,'
p227
aS'cocktail'
p228
aS'chow'
p229
aS'substitute'
p230
aS'brownie'
p231
aVlycopene
p232
aVlaxative
p233
aS'blood'
p234
aS'ethnic'
p235
aS'salsa'
p236
aS'carnitine'
p237
aS'sloppy'
p238
aS'types'
p239
aS'a'
p240
aS'stress'
p241
aS'cod'
p242
aS'natural'
p243
aS'liquid'
p244
aS'joint'
p245
aS'enzymes'
p246
aS'croissant'
p247
aS'arrabbiata'
p248
aS'greek'
p249
aVpoppyseed
p250
aS'mango'
p251
aS'green'
p252
aS'road'
p253
aS'watermelon'
p254
aV(pantothenic
p255
aS'(niacin)'
p256
aS'oat'
p257
aS'turmeric'
p258
aS'miso'
p259
aS'spreads'
p260
aS'mexican'
p261
aS'muffin'
p262
aS'for'
p263
aS'dough'
p264
aS'cuts'
p265
aVrefried
p266
aS'cold'
p267
aS'cole'
p268
aS'cola'
p269
aS'drinks,'
p270
aS'style'
p271
aS'puffs'
p272
aVcholine/
p273
aS'smoothie'
p274
aS'bagels'
p275
aS'yams'
p276
aS'relish'
p277
aS'sprays'
p278
aV2%
p279
aS'decaffeinated'
p280
aS'orange'
p281
aS'peanuts'
p282
aVpesto
p283
aS'main'
p284
aS'sauce'
p285
aS'non'
p286
aVpecans
p287
aS'food'
p288
aVflour
p289
aS'wasabi'
p290
aS'oranges'
p291
aS'fries,'
p292
aS"panini's"
p293
aVprunes
p294
aS'half'
p295
aS'toppings'
p296
aS'ketchup'
p297
aS'nectar'
p298
aVcoriander
p299
aS'mushrooms'
p300
aS'meat'
p301
aVwash
p302
aS'cold/flu'
p303
aVquercetin
p304
aS'mandarins'
p305
aS'cider'
p306
aVtoasted
p307
aS'gravy'
p308
aS'flavored'
p309
aS'biscuits'
p310
aS'meal'
p311
aS'bone'
p312
aS'weight'
p313
aS'chunk'
p314
aS'hard'
p315
aS'hoisin'
p316
aS'macaroons'
p317
aS'skins'
p318
aVmincemeat
p319
aS"goat's"
p320
aS'oil'
p321
aS'salves'
p322
aS'navy'
p323
aS'farfalle'
p324
aS'lentil'
p325
aS'lotions,'
p326
aS'flavor'
p327
aS'stew)'
p328
aS'bag'
p329
aS'entree'
p330
aS'dehydrated'
p331
aS'horseradish'
p332
aVamaranth
p333
aS'granola'
p334
aS'oriental'
p335
aS'barley'
p336
aS'grits'
p337
aS'caramel'
p338
aVhci
p339
aS'linguine'
p340
aS'red'
p341
aS'biscotti'
p342
aS'cloves'
p343
aS'fiber'
p344
aVbass
p345
aVreishi/shiitake/maitake
p346
aS'sausages'
p347
aS'romano'
p348
aS'toppers'
p349
aS'walnuts'
p350
aS'salami'
p351
aS'cookie'
p352
aS'(chilli,'
p353
aS'franks'
p354
aVcare
p355
aS'chilli'
p356
aS'tortilla'
p357
aS'organic'
p358
aS'gelatin'
p359
aS'mac'
p360
aS'american'
p361
aS'pudding'
p362
aS'pepperoni'
p363
aS'provolone'
p364
aS'liquids'
p365
aS'vegetables'
p366
aS'nutrition'
p367
aVfirst
p368
aS'chopped'
p369
aS'cheese'
p370
aS'taco'
p371
aS'chia'
p372
aS'veggie'
p373
aS'ciders'
p374
aS"tenderizer's"
p375
aS'lettuce'
p376
aS'tzatziki'
p377
aS'cups'
p378
aS'parfait'
p379
aS'maple'
p380
aS'anxiety/sleep'
p381
aS'assorted/variety'
p382
aS'spinach'
p383
aS'bologna'
p384
aS'licorice'
p385
aS'system'
p386
aS'decorations'
p387
aS'(folate,'
p388
aS'beans,'
p389
aS'white'
p390
aS'bits'
p391
aS'banana'
p392
aS'oranges,'
p393
aS'lipoic'
p394
aS'tomato'
p395
aS'shell'
p396
aS'asparagus,'
p397
aS'canned'
p398
aVwieners
p399
aS'luncheon'
p400
aS"men's"
p401
aS'serve'
p402
aS'baguettes'
p403
aS'cereal'
p404
aS'hazelnut'
p405
aVmillet
p406
aS'cleanse'
p407
aS'10'
p408
aS'tortellini'
p409
aS'b'
p410
aS'prune'
p411
aS'oats'
p412
aS'nougat'
p413
aS'multigrain'
p414
aS'bee'
p415
aV1%
p416
aS'apples'
p417
aS'iron'
p418
aVfruits
p419
aS'evaporated'
p420
aS'shrimp'
p421
aS'mini'
p422
aS'coconut'
p423
aS'ranch'
p424
aS'meats'
p425
aS'sweeteners'
p426
aS'angel'
p427
aS'cauliflower,'
p428
aS'slaw'
p429
aS'tacos'
p430
aS'carrots'
p431
aS'fillets'
p432
aS'ginger'
p433
aS'lentils,'
p434
aS'seed'
p435
aS'sport'
p436
aS'pastry'
p437
aS'breakfast'
p438
aS'mint'
p439
aS'acid'
p440
aS'fermented'
p441
aS'dishes'
p442
aS'scone'
p443
aS'waffles'
p444
aS'bagel'
p445
aS'mix'
p446
aS'peas,'
p447
aS'caesar'
p448
aS'fajitas'
p449
aS'sandwiches'
p450
aS'seasonings'
p451
aS'ointments'
p452
aS'potassium'
p453
aVniacinamide
p454
aS'formulas'
p455
aS'topping'
p456
aS'spreadable'
p457
aS'pain'
p458
aS'pretzels'
p459
aS'singles'
p460
aS'vermicelli'
p461
aS'eggs'
p462
aS'vinaigrette'
p463
aVnasal
p464
aVmashed
p465
aVtinctures
p466
aVcomplexes
p467
aVbeta
p468
aS'regular'
p469
aS'gouda'
p470
aS'tract'
p471
aS'frosting'
p472
aS'alpha'
p473
aVcreamers,
p474
aS'oyster'
p475
aS'patties'
p476
aS'breads'
p477
aS'mineral'
p478
aS'beets'
p479
aS'marinara'
p480
aS'soups'
p481
aS'seafood'
p482
aS'dog'
p483
aS'wing'
p484
aS'jalapenos'
p485
aS'liverwurst'
p486
aS'cheesecake'
p487
aVprickly
p488
aS"panini's,"
p489
aS'pineapple'
p490
aS'wine'
p491
aS'blend'
p492
aS'enchiladas'
p493
aS'alfalfa'
p494
aS'chowder'
p495
aS'meatballs'
p496
aS'sage'
p497
aVfingers
p498
aS'pops'
p499
aVgarbanzo
p500
aS'kits'
p501
aS'seaweed'
p502
aS'chicken'
p503
aS'calamari'
p504
aS'ground'
p505
aS'toast'
p506
aS'wraps'
p507
aS'snack'
p508
aS'based'
p509
aS'shellfish'
p510
aS'northern'
p511
aVgourd
p512
aS'breadcrumbs'
p513
aS'candy,'
p514
aVreplacer
p515
aS'sugar'
p516
aVstarters
p517
aS'bases'
p518
aS'black'
p519
aVlactose
p520
aVpolenta
p521
aS'bread'
p522
aS'rice'
p523
aVplums
p524
aS'gels'
p525
aS'toffee'
p526
aS'stuffed'
p527
aS'cappuccino'
p528
aS'mein'
p529
aS'shortbread'
p530
aS'nuggets,'
p531
aS'pocket'
p532
aS'mandarin'
p533
aS'bean'
p534
aS'molasses'
p535
aS'batter'
p536
aS'herbs,'
p537
aS'combinations'
p538
aS'chips'
p539
aS'chutney'
p540
aS'blends'
p541
aVgel
p542
aVextract
p543
aVglutathione
p544
aS'bar'
p545
aVmolybdenum
p546
aVpretzel
p547
aS'sandwich'
p548
aS'bay'
p549
aS'whitefish'
p550
aS"children's"
p551
aS'nutmeg'
p552
aS'mints'
p553
aS'shots'
p554
aS'foods'
p555
aS'steak'
p556
aVhomeopathy
p557
aS'pouches'
p558
aS'bars'
p559
aS'heartburn'
p560
aS'lemonade'
p561
aS'lunchables'
p562
aS'broths'
p563
aS'powder'
p564
aVsea
p565
aS'polish'
p566
aS'quiche'
p567
aS'noodles'
p568
aS'adrenal'
p569
aS'brazil'
p570
aS'vitamins'
p571
aS'cumin'
p572
aS'(unpopped)'
p573
aS'rings'
p574
aS'coffee'
p575
aS'malted'
p576
aS'creme'
p577
aVmethionine
p578
aS'finger'
p579
aS'glutamine'
p580
aS'herbal'
p581
aVchews
p582
aS'whipped'
p583
aS'magnesium'
p584
aS'carbonated'
p585
aS'cauliflower'
p586
aS'microwaveable'
p587
aS'beverages'
p588
aS'vitamin'
p589
aVrutin
p590
aVspray
p591
aVlecithin
p592
aS'joe'
p593
aS'allergy/hay'
p594
aS"calzone's"
p595
aVdates
p596
aVeggnog
p597
aS'instant'
p598
aS'sprouted'
p599
aS'aloe'
p600
aS'extracts'
p601
aS'wines,'
p602
aS'hummus'
p603
aVcubed
p604
aS'berry'
p605
aS'arginine'
p606
aVrose
p607
aS'pita'
p608
aS'vegetarian'
p609
aS'pureed'
p610
aS'whole'
p611
aS'bran'
p612
aS'cakes'
p613
aS'salad'
p614
aS'sherry,'
p615
aS'sweet'
p616
aVantioxidant
p617
aS'sardines'
p618
aS'(cobalamin)'
p619
aS'colon'
p620
aS'crisps'
p621
aS'zinc'
p622
aS"burger's"
p623
aS'sticks'
p624
aS'turkey'
p625
aS'olives'
p626
aVlight
p627
aS'beef'
p628
aS'balsamic'
p629
aS'artichokes'
p630
aS'shortening'
p631
aS'fudge'
p632
aVbuttermilk
p633
aS'apples,'
p634
aS'bbq'
p635
aVgrowth
p636
aS'spices'
p637
aS'peppers'
p638
aS'jerky'
p639
aS'worcestershire'
p640
aS'ravioli'
p641
aV(flavored)
p642
aVtreatment
p643
aS'remedies'
p644
aS'ricotta'
p645
aS'mushroom'
p646
aS'assorted'
p647
aS'thousand'
p648
aS'c'
p649
aS'savory'
p650
aS'pierogies'
p651
aVcubes
p652
aS'grapefruits'
p653
aS'liver'
p654
aS'rubs'
p655
aS'covered'
p656
aS'chili'
p657
aV(pies)
p658
aS'cake,'
p659
aS'dhea'
p660
aS'concentrates'
p661
aS'bruschetta'
p662
aS'sticks,'
p663
aS'soda'
p664
aS'donuts,'
p665
aS'juice'
p666
aS'frozen'
p667
aS'plain'
p668
aS'vanilla'
p669
aS'canadian'
p670
aVcracker
p671
aS'sesame'
p672
aS'calcium'
p673
aS'seeds'
p674
aS'wild'
p675
aVaid
p676
aVp)
p677
aS'k'
p678
aS'pack'
p679
aS'carrots,'
p680
aS'stuffing'
p681
aS'alcoholic'
p682
aS'twists'
p683
aS'sushi'
p684
aVglutamic
p685
aVaccessories
p686
aS'shredded'
p687
aS'marshmallows'
p688
aS'in'
p689
aS'ready'
p690
aS'protein'
p691
aS'macadamia'
p692
aS'combination'
p693
aValphabet
p694
aS'toaster'
p695
aS'chewy'
p696
aS'dha'
p697
aVapricots
p698
aS'complex'
p699
aS'macaroni'
p700
aS'vegetable'
p701
aS'party'
p702
aS'yogurt'
p703
aVkidney/bladder
p704
aS'tomatoes'
p705
aS'european'
p706
aS'wrappers'
p707
aS'elbows'
p708
aS'ball'
p709
aVpapaya
p710
aS'marzipan'
p711
aS'pomegranate'
p712
aS'drink'
p713
aS'grilling'
p714
aS'kit'
p715
aS'fruit'
p716
aS'garlic'
p717
aS'purpose'
p718
aS'nonsalted'
p719
aVcroissants
p720
aS'tuna'
p721
aS'butter'
p722
aS'omelette'
p723
aS'noodle'
p724
aVcarotenes
p725
aS'fever'
p726
aS'burgers'
p727
aS'tapenade'
p728
aVspelt
p729
aS'veal'
p730
aS'puree'
p731
aS'english'
p732
aS'swiss'
p733
aVsmoked
p734
aVfigs
p735
aS'seasonal'
p736
aS'cashew'
p737
aS'bananas'
p738
aVglycine
p739
aS'skin'
p740
aS'cheddar'
p741
aS'folic'
p742
aS'margarine'
p743
aS'alternative'
p744
aS'wafers'
p745
aS'guacamole'
p746
aS'thyroid'
p747
aVcilantro
p748
aVcut
p749
aS'ham'
p750
aS'sunflower'
p751
aS'cherry'
p752
aS'wings'
p753
aS'muffins'
p754
aVtaurine
p755
aS'cherries'
p756
aS'cranberries'
p757
aS'gefilte'
p758
aS'teriyaki'
p759
aVpill
p760
aS'styles'
p761
aS'stewed'
p762
aS'(<'
p763
aS'loss'
p764
aS'confection'
p765
aS'(6'
p766
aS'crushed'
p767
aVcaps
p768
aS'game'
p769
aVboysenberry
p770
aS'pies'
p771
aVadvanced
p772
aS'rocky'
p773
aVphosphatidyl
p774
aS'clam'
p775
aS'd'
p776
aS'onion'
p777
aS'shaped'
p778
aVliquor
p779
aS'fajita'
p780
aS'candy'
p781
aVbetaine
p782
aVshapes
p783
aVbabaganoush
p784
aVblackberry
p785
aS'potatoes'
p786
aS'soft'
p787
aS'sourdough'
p788
aS'replacement'
p789
aS'meringues'
p790
aS'taffy'
p791
aS'(other)'
p792
aS'cones'
p793
aVsulfur/msm
p794
aS'spring'
p795
aS'sorbet'
p796
aS'yogurt/chocolate'
p797
aS'acai'
p798
aVphenylalanine
p799
aS'hair'
p800
aVb5
p801
aS'b6'
p802
aS'almonds'
p803
aS'(popped)'
p804
aVb2
p805
aS'b3'
p806
aS'pickles'
p807
aS'meatloaf'
p808
aS'sauces'
p809
aS'lollipops'
p810
aS'olive'
p811
aS'mood'
p812
aS'jalapeno'
p813
aS'novelty'
p814
aS'ice'
p815
aS'grapefruit'
p816
aS'inflammation'
p817
aS'lard'
p818
aS'amino'
p819
aS'pea'
p820
aS'nuggets'
p821
aS'bisque'
p822
aS'diced'
p823
aVshakes
p824
aS'substitutes'
p825
aS'novelties'
p826
aVcholesterol/blood
p827
aS'salmon'
p828
aS'corn'
p829
aS'flatbreads'
p830
aS'miscellaneous'
p831
aS'nuts,'
p832
aS'sundae,'
p833
aS'stew'
p834
aS'pasta'
p835
aS'raspberry'
p836
aS'paste'
p837
aS'breadsticks'
p838
aS'goods'
p839
aS'fillings'
p840
aS'quinoa'
p841
aS'snacks,'
p842
aS'island'
p843
aS'biscuit'
p844
aS'iced'
p845
aS'oatmeal'
p846
aVflavonids/polyphenols
p847
aVpistachio
p848
aS'dinner'
p849
aS'agave'
p850
aS'beans'
p851
aS'muffins,'
p852
aS'cranberry'
p853
aS'mixed'
p854
aS'gingerbread'
p855
aS'kombucha'
p856
aS'italian'
p857
aS'curry'
p858
aVadditives
p859
aS'pastries'
p860
aVpineapples
p861
aS'marshmallow'
p862
aS'folacin)'
p863
aS'cocoa'
p864
aS'oregano'
p865
aS'raisin,'
p866
aS'fish'
p867
aS'soy'
p868
aS'taquitos'
p869
aVgerm
p870
aS'rolls'
p871
aS'9.99'
p872
aS'creamers'
p873
aS'detox'
p874
aS'brownies'
p875
aS'shells'
p876
aS'nails'
p877
aS'support'
p878
aS'beer'
p879
aVcultured
p880
aVhusk
p881
aS'grated'
p882
aS'powdered'
p883
aVcultures
p884
aS'bubble'
p885
aS'energy'
p886
aVtyrosine
p887
aVkichel
p888
aS'roll,'
p889
aS'butters'
p890
aVraisins
p891
aS'oils'
p892
aS'specialty'
p893
aVpickled
p894
aS'basil'
p895
aS'heat'
p896
aS'lutein'
p897
aS'fettuccine'
p898
aS'nut'
p899
aS'bratwurst'
p900
aS'cottage'
p901
aVear
p902
aS'with'
p903
aS'fry'
p904
aS'spice'
p905
aS'circulation'
p906
aS'pistachios'
p907
aS'(pyroxidine)'
p908
aS'apricot'
p909
aS'subs,'
p910
aS'potato'
p911
aVpeppermint
p912
aS'paprika'
p913
aS'strawberry'
p914
aVhomeopathic,
p915
aS'bouillon'
p916
aS'vegetable,'
p917
aS'lozenges,'
p918
aS'cake'
p919
aVgrass
p920
aS'sauerkraut,'
p921
aVb1
p922
aS'supreme'
p923
aS'blintzes'
p924
aS'classic'
p925
aS'chai'
p926
aVpie
p927
aS'strips'
p928
aS'single'
p929
aS'drinkable'
p930
aS'penne'
p931
aS'spinach,'
p932
aS'melatonin'
p933
aS'caramels,'
p934
aS'graham'
p935
aV(thiamine)
p936
aS'kidney'
p937
aS'cream'
p938
aS'traditional'
p939
aS'lemon'
p940
aS'peach'
p941
aS'no'
p942
aS'salads'
p943
aS'packs'
p944
aS'saffron'
p945
aVcowpeas
p946
aVacid)
p947
aS'other'
p948
aS'b12'
p949
aS'mayonnaise'
p950
aS'roll'
p951
aVcystine
p952
aS'tart'
p953
aS'mustard'
p954
aS'muffin,'
p955
aS'mulling'
p956
aS'pear'
p957
aS'peas'
p958
aVdiet
p959
aS'prepared'
p960
aS'herbs'
p961
aVgorgonzola
p962
aV(dlpa)
p963
aS'pickle'
p964
aS'capers'
p965
aS'stocks'
p966
aS'waffle'
p967
aS'meals'
p968
aS'okra'
p969
aS'wonton'
p970
aS'deluxe'
p971
aS'e'
p972
aVpersimmons
p973
aS'marinades'
p974
aS'gelato'
p975
aS'salt'
p976
aS'biotics'
p977
aS'beverage'
p978
aS'fresh'
p979
aVplatter
p980
aS'baked'
p981
atp982
Rp983
.